riscv32-unknown-elf-objdump -Mmarch=rv32imcxgap9 -d /home/pulp-user/work/AdaptiveFilters/AdaptiveFiltersC/BUILD/PULP/GCC_RISCV//adaptive_filters/adaptive_filters

/home/pulp-user/work/AdaptiveFilters/AdaptiveFiltersC/BUILD/PULP/GCC_RISCV//adaptive_filters/adaptive_filters:     file format elf32-littleriscv


Disassembly of section .vectors:

1c008000 <__irq_vector_base>:
1c008000:	08c0006f          	j	1c00808c <pos_illegal_instr>
1c008004:	08c0006f          	j	1c008090 <pos_no_irq_handler>
1c008008:	0880006f          	j	1c008090 <pos_no_irq_handler>
1c00800c:	0840006f          	j	1c008090 <pos_no_irq_handler>
1c008010:	0800006f          	j	1c008090 <pos_no_irq_handler>
1c008014:	07c0006f          	j	1c008090 <pos_no_irq_handler>
1c008018:	0780006f          	j	1c008090 <pos_no_irq_handler>
1c00801c:	0740006f          	j	1c008090 <pos_no_irq_handler>
1c008020:	0700006f          	j	1c008090 <pos_no_irq_handler>
1c008024:	06c0006f          	j	1c008090 <pos_no_irq_handler>
1c008028:	0680006f          	j	1c008090 <pos_no_irq_handler>
1c00802c:	0640006f          	j	1c008090 <pos_no_irq_handler>
1c008030:	0600006f          	j	1c008090 <pos_no_irq_handler>
1c008034:	05c0006f          	j	1c008090 <pos_no_irq_handler>
1c008038:	0580006f          	j	1c008090 <pos_no_irq_handler>
1c00803c:	0540006f          	j	1c008090 <pos_no_irq_handler>
1c008040:	0500006f          	j	1c008090 <pos_no_irq_handler>
1c008044:	04c0006f          	j	1c008090 <pos_no_irq_handler>
1c008048:	0480006f          	j	1c008090 <pos_no_irq_handler>
1c00804c:	0440006f          	j	1c008090 <pos_no_irq_handler>
1c008050:	0400006f          	j	1c008090 <pos_no_irq_handler>
1c008054:	03c0006f          	j	1c008090 <pos_no_irq_handler>
1c008058:	0380006f          	j	1c008090 <pos_no_irq_handler>
1c00805c:	0340006f          	j	1c008090 <pos_no_irq_handler>
1c008060:	0300006f          	j	1c008090 <pos_no_irq_handler>
1c008064:	02c0006f          	j	1c008090 <pos_no_irq_handler>
1c008068:	0280006f          	j	1c008090 <pos_no_irq_handler>
1c00806c:	0240006f          	j	1c008090 <pos_no_irq_handler>
1c008070:	0200006f          	j	1c008090 <pos_no_irq_handler>
1c008074:	01c0006f          	j	1c008090 <pos_no_irq_handler>
1c008078:	0180006f          	j	1c008090 <pos_no_irq_handler>
1c00807c:	0140006f          	j	1c008090 <pos_no_irq_handler>

1c008080 <_start>:
1c008080:	00006517          	auipc	a0,0x6
1c008084:	99450513          	addi	a0,a0,-1644 # 1c00da14 <pos_init_entry>
1c008088:	00050067          	jr	a0

1c00808c <pos_illegal_instr>:
1c00808c:	0000006f          	j	1c00808c <pos_illegal_instr>

1c008090 <pos_no_irq_handler>:
1c008090:	30200073          	mret

1c008094 <pos_semihosting_call>:
1c008094:	00100073          	ebreak
1c008098:	00008067          	ret

Disassembly of section .text:

1c00809c <round>:
1c00809c:	4145d693          	srai	a3,a1,0x14
1c0080a0:	e8b6b6b3          	p.bclr	a3,a3,20,11
1c0080a4:	c0168613          	addi	a2,a3,-1023
1c0080a8:	474d                	li	a4,19
1c0080aa:	88aa                	mv	a7,a0
1c0080ac:	882e                	mv	a6,a1
1c0080ae:	87ae                	mv	a5,a1
1c0080b0:	04c74363          	blt	a4,a2,1c0080f6 <round+0x5a>
1c0080b4:	00065e63          	bgez	a2,1c0080d0 <round+0x34>
1c0080b8:	fc05b7b3          	p.bclr	a5,a1,30,0
1c0080bc:	4701                	li	a4,0
1c0080be:	01f63463          	p.bneimm	a2,-1,1c0080c6 <round+0x2a>
1c0080c2:	d347c7b3          	p.bset	a5,a5,9,20
1c0080c6:	88ba                	mv	a7,a4
1c0080c8:	883e                	mv	a6,a5
1c0080ca:	8546                	mv	a0,a7
1c0080cc:	85c2                	mv	a1,a6
1c0080ce:	8082                	ret
1c0080d0:	00100737          	lui	a4,0x100
1c0080d4:	177d                	addi	a4,a4,-1
1c0080d6:	40c75733          	sra	a4,a4,a2
1c0080da:	00e5f6b3          	and	a3,a1,a4
1c0080de:	e291                	bnez	a3,1c0080e2 <round+0x46>
1c0080e0:	d56d                	beqz	a0,1c0080ca <round+0x2e>
1c0080e2:	000806b7          	lui	a3,0x80
1c0080e6:	40c6d633          	sra	a2,a3,a2
1c0080ea:	fff74713          	not	a4,a4
1c0080ee:	97b2                	add	a5,a5,a2
1c0080f0:	8ff9                	and	a5,a5,a4
1c0080f2:	4701                	li	a4,0
1c0080f4:	bfc9                	j	1c0080c6 <round+0x2a>
1c0080f6:	03300e13          	li	t3,51
1c0080fa:	00ce5f63          	ble	a2,t3,1c008118 <round+0x7c>
1c0080fe:	40000793          	li	a5,1024
1c008102:	fcf614e3          	bne	a2,a5,1c0080ca <round+0x2e>
1c008106:	1141                	addi	sp,sp,-16
1c008108:	862a                	mv	a2,a0
1c00810a:	86ae                	mv	a3,a1
1c00810c:	c606                	sw	ra,12(sp)
1c00810e:	0c7000ef          	jal	ra,1c0089d4 <__adddf3>
1c008112:	40b2                	lw	ra,12(sp)
1c008114:	0141                	addi	sp,sp,16
1c008116:	8082                	ret
1c008118:	bed68713          	addi	a4,a3,-1043 # 7fbed <__l1_heap_size+0x73d15>
1c00811c:	56fd                	li	a3,-1
1c00811e:	00e6d6b3          	srl	a3,a3,a4
1c008122:	00d57733          	and	a4,a0,a3
1c008126:	d355                	beqz	a4,1c0080ca <round+0x2e>
1c008128:	40ce0e33          	sub	t3,t3,a2
1c00812c:	4605                	li	a2,1
1c00812e:	01c61633          	sll	a2,a2,t3
1c008132:	962a                	add	a2,a2,a0
1c008134:	00a67463          	bleu	a0,a2,1c00813c <round+0xa0>
1c008138:	00158793          	addi	a5,a1,1
1c00813c:	fff6c713          	not	a4,a3
1c008140:	8f71                	and	a4,a4,a2
1c008142:	b751                	j	1c0080c6 <round+0x2a>

1c008144 <sqrt>:
1c008144:	715d                	addi	sp,sp,-80
1c008146:	c4a2                	sw	s0,72(sp)
1c008148:	c2a6                	sw	s1,68(sp)
1c00814a:	c0ca                	sw	s2,64(sp)
1c00814c:	de52                	sw	s4,60(sp)
1c00814e:	dc56                	sw	s5,56(sp)
1c008150:	c686                	sw	ra,76(sp)
1c008152:	842a                	mv	s0,a0
1c008154:	84ae                	mv	s1,a1
1c008156:	2869                	jal	1c0081f0 <__ieee754_sqrt>
1c008158:	1c0057b7          	lui	a5,0x1c005
1c00815c:	4c07a903          	lw	s2,1216(a5) # 1c0054c0 <__fdlib_version>
1c008160:	8a2a                	mv	s4,a0
1c008162:	8aae                	mv	s5,a1
1c008164:	05f92c63          	p.beqimm	s2,-1,1c0081bc <sqrt+0x78>
1c008168:	8622                	mv	a2,s0
1c00816a:	86a6                	mv	a3,s1
1c00816c:	8522                	mv	a0,s0
1c00816e:	85a6                	mv	a1,s1
1c008170:	5c4020ef          	jal	ra,1c00a734 <__unorddf2>
1c008174:	e521                	bnez	a0,1c0081bc <sqrt+0x78>
1c008176:	4601                	li	a2,0
1c008178:	4681                	li	a3,0
1c00817a:	8522                	mv	a0,s0
1c00817c:	85a6                	mv	a1,s1
1c00817e:	734010ef          	jal	ra,1c0098b2 <__ledf2>
1c008182:	02055d63          	bgez	a0,1c0081bc <sqrt+0x78>
1c008186:	4785                	li	a5,1
1c008188:	c43e                	sw	a5,8(sp)
1c00818a:	1c0017b7          	lui	a5,0x1c001
1c00818e:	ba878793          	addi	a5,a5,-1112 # 1c000ba8 <__clz_tab+0x2c8>
1c008192:	c63e                	sw	a5,12(sp)
1c008194:	d402                	sw	zero,40(sp)
1c008196:	cc22                	sw	s0,24(sp)
1c008198:	ce26                	sw	s1,28(sp)
1c00819a:	c822                	sw	s0,16(sp)
1c00819c:	ca26                	sw	s1,20(sp)
1c00819e:	02091963          	bnez	s2,1c0081d0 <sqrt+0x8c>
1c0081a2:	d002                	sw	zero,32(sp)
1c0081a4:	d202                	sw	zero,36(sp)
1c0081a6:	0028                	addi	a0,sp,8
1c0081a8:	2a7d                	jal	1c008366 <matherr>
1c0081aa:	cd0d                	beqz	a0,1c0081e4 <sqrt+0xa0>
1c0081ac:	57a2                	lw	a5,40(sp)
1c0081ae:	c789                	beqz	a5,1c0081b8 <sqrt+0x74>
1c0081b0:	42c030ef          	jal	ra,1c00b5dc <__errno>
1c0081b4:	57a2                	lw	a5,40(sp)
1c0081b6:	c11c                	sw	a5,0(a0)
1c0081b8:	5a02                	lw	s4,32(sp)
1c0081ba:	5a92                	lw	s5,36(sp)
1c0081bc:	40b6                	lw	ra,76(sp)
1c0081be:	4426                	lw	s0,72(sp)
1c0081c0:	8552                	mv	a0,s4
1c0081c2:	85d6                	mv	a1,s5
1c0081c4:	4496                	lw	s1,68(sp)
1c0081c6:	4906                	lw	s2,64(sp)
1c0081c8:	5a72                	lw	s4,60(sp)
1c0081ca:	5ae2                	lw	s5,56(sp)
1c0081cc:	6161                	addi	sp,sp,80
1c0081ce:	8082                	ret
1c0081d0:	4601                	li	a2,0
1c0081d2:	4681                	li	a3,0
1c0081d4:	8532                	mv	a0,a2
1c0081d6:	85b6                	mv	a1,a3
1c0081d8:	046010ef          	jal	ra,1c00921e <__divdf3>
1c0081dc:	d02a                	sw	a0,32(sp)
1c0081de:	d22e                	sw	a1,36(sp)
1c0081e0:	fc2933e3          	p.bneimm	s2,2,1c0081a6 <sqrt+0x62>
1c0081e4:	3f8030ef          	jal	ra,1c00b5dc <__errno>
1c0081e8:	02100793          	li	a5,33
1c0081ec:	c11c                	sw	a5,0(a0)
1c0081ee:	bf7d                	j	1c0081ac <sqrt+0x68>

1c0081f0 <__ieee754_sqrt>:
1c0081f0:	1141                	addi	sp,sp,-16
1c0081f2:	7ff006b7          	lui	a3,0x7ff00
1c0081f6:	c422                	sw	s0,8(sp)
1c0081f8:	c226                	sw	s1,4(sp)
1c0081fa:	c606                	sw	ra,12(sp)
1c0081fc:	00b6f633          	and	a2,a3,a1
1c008200:	84aa                	mv	s1,a0
1c008202:	842e                	mv	s0,a1
1c008204:	02d61463          	bne	a2,a3,1c00822c <__ieee754_sqrt+0x3c>
1c008208:	862a                	mv	a2,a0
1c00820a:	86ae                	mv	a3,a1
1c00820c:	74e010ef          	jal	ra,1c00995a <__muldf3>
1c008210:	862a                	mv	a2,a0
1c008212:	86ae                	mv	a3,a1
1c008214:	8526                	mv	a0,s1
1c008216:	85a2                	mv	a1,s0
1c008218:	2f75                	jal	1c0089d4 <__adddf3>
1c00821a:	84aa                	mv	s1,a0
1c00821c:	842e                	mv	s0,a1
1c00821e:	85a2                	mv	a1,s0
1c008220:	40b2                	lw	ra,12(sp)
1c008222:	4422                	lw	s0,8(sp)
1c008224:	8526                	mv	a0,s1
1c008226:	4492                	lw	s1,4(sp)
1c008228:	0141                	addi	sp,sp,16
1c00822a:	8082                	ret
1c00822c:	872e                	mv	a4,a1
1c00822e:	86aa                	mv	a3,a0
1c008230:	02b04063          	bgtz	a1,1c008250 <__ieee754_sqrt+0x60>
1c008234:	c1f5b633          	p.bclr	a2,a1,0,31
1c008238:	8e49                	or	a2,a2,a0
1c00823a:	d275                	beqz	a2,1c00821e <__ieee754_sqrt+0x2e>
1c00823c:	c991                	beqz	a1,1c008250 <__ieee754_sqrt+0x60>
1c00823e:	862a                	mv	a2,a0
1c008240:	86ae                	mv	a3,a1
1c008242:	47f010ef          	jal	ra,1c009ec0 <__subdf3>
1c008246:	862a                	mv	a2,a0
1c008248:	86ae                	mv	a3,a1
1c00824a:	7d5000ef          	jal	ra,1c00921e <__divdf3>
1c00824e:	b7f1                	j	1c00821a <__ieee754_sqrt+0x2a>
1c008250:	41475793          	srai	a5,a4,0x14
1c008254:	10078063          	beqz	a5,1c008354 <__ieee754_sqrt+0x164>
1c008258:	c0178793          	addi	a5,a5,-1023
1c00825c:	d7473733          	p.bclr	a4,a4,11,20
1c008260:	fc17b633          	p.bclr	a2,a5,30,1
1c008264:	c1474733          	p.bset	a4,a4,0,20
1c008268:	c611                	beqz	a2,1c008274 <__ieee754_sqrt+0x84>
1c00826a:	01f6d613          	srli	a2,a3,0x1f
1c00826e:	0706                	slli	a4,a4,0x1
1c008270:	9732                	add	a4,a4,a2
1c008272:	0686                	slli	a3,a3,0x1
1c008274:	0706                	slli	a4,a4,0x1
1c008276:	4017d893          	srai	a7,a5,0x1
1c00827a:	01f6d793          	srli	a5,a3,0x1f
1c00827e:	97ba                	add	a5,a5,a4
1c008280:	0686                	slli	a3,a3,0x1
1c008282:	4581                	li	a1,0
1c008284:	4601                	li	a2,0
1c008286:	00200737          	lui	a4,0x200
1c00828a:	016850fb          	lp.setupi	x1,22,1c0082aa <__ieee754_sqrt+0xba>
1c00828e:	00e60833          	add	a6,a2,a4
1c008292:	0107c763          	blt	a5,a6,1c0082a0 <__ieee754_sqrt+0xb0>
1c008296:	00e80633          	add	a2,a6,a4
1c00829a:	410787b3          	sub	a5,a5,a6
1c00829e:	95ba                	add	a1,a1,a4
1c0082a0:	01f6d813          	srli	a6,a3,0x1f
1c0082a4:	0786                	slli	a5,a5,0x1
1c0082a6:	97c2                	add	a5,a5,a6
1c0082a8:	0686                	slli	a3,a3,0x1
1c0082aa:	8305                	srli	a4,a4,0x1
1c0082ac:	4701                	li	a4,0
1c0082ae:	4e01                	li	t3,0
1c0082b0:	80000537          	lui	a0,0x80000
1c0082b4:	02000313          	li	t1,32
1c0082b8:	020340fb          	lp.setup	x1,t1,1c0082f8 <__ieee754_sqrt+0x108>
1c0082bc:	01c50833          	add	a6,a0,t3
1c0082c0:	00f64663          	blt	a2,a5,1c0082cc <__ieee754_sqrt+0xdc>
1c0082c4:	02c79563          	bne	a5,a2,1c0082ee <__ieee754_sqrt+0xfe>
1c0082c8:	0306e363          	bltu	a3,a6,1c0082ee <__ieee754_sqrt+0xfe>
1c0082cc:	00a80e33          	add	t3,a6,a0
1c0082d0:	8eb2                	mv	t4,a2
1c0082d2:	00085663          	bgez	a6,1c0082de <__ieee754_sqrt+0xee>
1c0082d6:	000e4463          	bltz	t3,1c0082de <__ieee754_sqrt+0xee>
1c0082da:	00160e93          	addi	t4,a2,1
1c0082de:	8f91                	sub	a5,a5,a2
1c0082e0:	0106f363          	bleu	a6,a3,1c0082e6 <__ieee754_sqrt+0xf6>
1c0082e4:	17fd                	addi	a5,a5,-1
1c0082e6:	410686b3          	sub	a3,a3,a6
1c0082ea:	972a                	add	a4,a4,a0
1c0082ec:	8676                	mv	a2,t4
1c0082ee:	01f6d813          	srli	a6,a3,0x1f
1c0082f2:	0786                	slli	a5,a5,0x1
1c0082f4:	97c2                	add	a5,a5,a6
1c0082f6:	0686                	slli	a3,a3,0x1
1c0082f8:	8105                	srli	a0,a0,0x1
1c0082fa:	8fd5                	or	a5,a5,a3
1c0082fc:	c789                	beqz	a5,1c008306 <__ieee754_sqrt+0x116>
1c0082fe:	07f73063          	p.bneimm	a4,-1,1c00835e <__ieee754_sqrt+0x16e>
1c008302:	0585                	addi	a1,a1,1
1c008304:	4701                	li	a4,0
1c008306:	4015d693          	srai	a3,a1,0x1
1c00830a:	3fe007b7          	lui	a5,0x3fe00
1c00830e:	fc15b5b3          	p.bclr	a1,a1,30,1
1c008312:	96be                	add	a3,a3,a5
1c008314:	8305                	srli	a4,a4,0x1
1c008316:	c199                	beqz	a1,1c00831c <__ieee754_sqrt+0x12c>
1c008318:	c1f74733          	p.bset	a4,a4,0,31
1c00831c:	01489793          	slli	a5,a7,0x14
1c008320:	84ba                	mv	s1,a4
1c008322:	00d78433          	add	s0,a5,a3
1c008326:	bde5                	j	1c00821e <__ieee754_sqrt+0x2e>
1c008328:	00b6d713          	srli	a4,a3,0xb
1c00832c:	15ad                	addi	a1,a1,-21
1c00832e:	06d6                	slli	a3,a3,0x15
1c008330:	df65                	beqz	a4,1c008328 <__ieee754_sqrt+0x138>
1c008332:	00b71613          	slli	a2,a4,0xb
1c008336:	02065163          	bgez	a2,1c008358 <__ieee754_sqrt+0x168>
1c00833a:	02000613          	li	a2,32
1c00833e:	8e1d                	sub	a2,a2,a5
1c008340:	00c6d633          	srl	a2,a3,a2
1c008344:	fff78513          	addi	a0,a5,-1 # 3fdfffff <__l2_shared_end+0x23debd53>
1c008348:	00f696b3          	sll	a3,a3,a5
1c00834c:	8f51                	or	a4,a4,a2
1c00834e:	40a587b3          	sub	a5,a1,a0
1c008352:	b719                	j	1c008258 <__ieee754_sqrt+0x68>
1c008354:	4581                	li	a1,0
1c008356:	bfe9                	j	1c008330 <__ieee754_sqrt+0x140>
1c008358:	0706                	slli	a4,a4,0x1
1c00835a:	0785                	addi	a5,a5,1
1c00835c:	bfd9                	j	1c008332 <__ieee754_sqrt+0x142>
1c00835e:	0705                	addi	a4,a4,1
1c008360:	c0073733          	p.bclr	a4,a4,0,0
1c008364:	b74d                	j	1c008306 <__ieee754_sqrt+0x116>

1c008366 <matherr>:
1c008366:	4501                	li	a0,0
1c008368:	8082                	ret

1c00836a <__udivdi3>:
1c00836a:	87b2                	mv	a5,a2
1c00836c:	8736                	mv	a4,a3
1c00836e:	88aa                	mv	a7,a0
1c008370:	882e                	mv	a6,a1
1c008372:	1e069d63          	bnez	a3,1c00856c <__udivdi3+0x202>
1c008376:	1c001337          	lui	t1,0x1c001
1c00837a:	8e030313          	addi	t1,t1,-1824 # 1c0008e0 <__clz_tab>
1c00837e:	0ac5fd63          	bleu	a2,a1,1c008438 <__udivdi3+0xce>
1c008382:	6741                	lui	a4,0x10
1c008384:	0ae67363          	bleu	a4,a2,1c00842a <__udivdi3+0xc0>
1c008388:	0ff00693          	li	a3,255
1c00838c:	00c6b6b3          	sltu	a3,a3,a2
1c008390:	068e                	slli	a3,a3,0x3
1c008392:	00d65733          	srl	a4,a2,a3
1c008396:	933a                	add	t1,t1,a4
1c008398:	00034703          	lbu	a4,0(t1)
1c00839c:	02000313          	li	t1,32
1c0083a0:	96ba                	add	a3,a3,a4
1c0083a2:	40d30333          	sub	t1,t1,a3
1c0083a6:	00030c63          	beqz	t1,1c0083be <__udivdi3+0x54>
1c0083aa:	00659733          	sll	a4,a1,t1
1c0083ae:	00d556b3          	srl	a3,a0,a3
1c0083b2:	006617b3          	sll	a5,a2,t1
1c0083b6:	00e6e833          	or	a6,a3,a4
1c0083ba:	006518b3          	sll	a7,a0,t1
1c0083be:	0107d513          	srli	a0,a5,0x10
1c0083c2:	02a85733          	divu	a4,a6,a0
1c0083c6:	1007d5b3          	p.exthz	a1,a5
1c0083ca:	0108d693          	srli	a3,a7,0x10
1c0083ce:	02a87633          	remu	a2,a6,a0
1c0083d2:	02e58833          	mul	a6,a1,a4
1c0083d6:	0642                	slli	a2,a2,0x10
1c0083d8:	8ed1                	or	a3,a3,a2
1c0083da:	863a                	mv	a2,a4
1c0083dc:	0106fc63          	bleu	a6,a3,1c0083f4 <__udivdi3+0x8a>
1c0083e0:	96be                	add	a3,a3,a5
1c0083e2:	fff70613          	addi	a2,a4,-1 # ffff <__l1_heap_size+0x4127>
1c0083e6:	00f6e763          	bltu	a3,a5,1c0083f4 <__udivdi3+0x8a>
1c0083ea:	0106f563          	bleu	a6,a3,1c0083f4 <__udivdi3+0x8a>
1c0083ee:	ffe70613          	addi	a2,a4,-2
1c0083f2:	96be                	add	a3,a3,a5
1c0083f4:	410686b3          	sub	a3,a3,a6
1c0083f8:	02a6f833          	remu	a6,a3,a0
1c0083fc:	02a6d6b3          	divu	a3,a3,a0
1c008400:	df0828b3          	p.insert	a7,a6,15,16
1c008404:	02d58733          	mul	a4,a1,a3
1c008408:	8536                	mv	a0,a3
1c00840a:	00e8fb63          	bleu	a4,a7,1c008420 <__udivdi3+0xb6>
1c00840e:	98be                	add	a7,a7,a5
1c008410:	fff68513          	addi	a0,a3,-1 # 7fefffff <__l2_shared_end+0x63eebd53>
1c008414:	00f8e663          	bltu	a7,a5,1c008420 <__udivdi3+0xb6>
1c008418:	00e8f463          	bleu	a4,a7,1c008420 <__udivdi3+0xb6>
1c00841c:	ffe68513          	addi	a0,a3,-2
1c008420:	01061793          	slli	a5,a2,0x10
1c008424:	8fc9                	or	a5,a5,a0
1c008426:	4801                	li	a6,0
1c008428:	a06d                	j	1c0084d2 <__udivdi3+0x168>
1c00842a:	01000737          	lui	a4,0x1000
1c00842e:	46c1                	li	a3,16
1c008430:	f6e661e3          	bltu	a2,a4,1c008392 <__udivdi3+0x28>
1c008434:	46e1                	li	a3,24
1c008436:	bfb1                	j	1c008392 <__udivdi3+0x28>
1c008438:	e601                	bnez	a2,1c008440 <__udivdi3+0xd6>
1c00843a:	4685                	li	a3,1
1c00843c:	02c6d7b3          	divu	a5,a3,a2
1c008440:	66c1                	lui	a3,0x10
1c008442:	08d7fb63          	bleu	a3,a5,1c0084d8 <__udivdi3+0x16e>
1c008446:	0ff00693          	li	a3,255
1c00844a:	00f6f363          	bleu	a5,a3,1c008450 <__udivdi3+0xe6>
1c00844e:	4721                	li	a4,8
1c008450:	00e7d6b3          	srl	a3,a5,a4
1c008454:	9336                	add	t1,t1,a3
1c008456:	00034683          	lbu	a3,0(t1)
1c00845a:	02000613          	li	a2,32
1c00845e:	96ba                	add	a3,a3,a4
1c008460:	8e15                	sub	a2,a2,a3
1c008462:	e251                	bnez	a2,1c0084e6 <__udivdi3+0x17c>
1c008464:	40f58733          	sub	a4,a1,a5
1c008468:	4805                	li	a6,1
1c00846a:	0107d513          	srli	a0,a5,0x10
1c00846e:	1007d5b3          	p.exthz	a1,a5
1c008472:	0108d693          	srli	a3,a7,0x10
1c008476:	02a77633          	remu	a2,a4,a0
1c00847a:	02a75733          	divu	a4,a4,a0
1c00847e:	0642                	slli	a2,a2,0x10
1c008480:	8ed1                	or	a3,a3,a2
1c008482:	02e58333          	mul	t1,a1,a4
1c008486:	863a                	mv	a2,a4
1c008488:	0066fc63          	bleu	t1,a3,1c0084a0 <__udivdi3+0x136>
1c00848c:	96be                	add	a3,a3,a5
1c00848e:	fff70613          	addi	a2,a4,-1 # ffffff <__l1_heap_size+0xff4127>
1c008492:	00f6e763          	bltu	a3,a5,1c0084a0 <__udivdi3+0x136>
1c008496:	0066f563          	bleu	t1,a3,1c0084a0 <__udivdi3+0x136>
1c00849a:	ffe70613          	addi	a2,a4,-2
1c00849e:	96be                	add	a3,a3,a5
1c0084a0:	406686b3          	sub	a3,a3,t1
1c0084a4:	02a6f333          	remu	t1,a3,a0
1c0084a8:	02a6d6b3          	divu	a3,a3,a0
1c0084ac:	df0328b3          	p.insert	a7,t1,15,16
1c0084b0:	02d58733          	mul	a4,a1,a3
1c0084b4:	8536                	mv	a0,a3
1c0084b6:	00e8fb63          	bleu	a4,a7,1c0084cc <__udivdi3+0x162>
1c0084ba:	98be                	add	a7,a7,a5
1c0084bc:	fff68513          	addi	a0,a3,-1 # ffff <__l1_heap_size+0x4127>
1c0084c0:	00f8e663          	bltu	a7,a5,1c0084cc <__udivdi3+0x162>
1c0084c4:	00e8f463          	bleu	a4,a7,1c0084cc <__udivdi3+0x162>
1c0084c8:	ffe68513          	addi	a0,a3,-2
1c0084cc:	01061793          	slli	a5,a2,0x10
1c0084d0:	8fc9                	or	a5,a5,a0
1c0084d2:	853e                	mv	a0,a5
1c0084d4:	85c2                	mv	a1,a6
1c0084d6:	8082                	ret
1c0084d8:	010006b7          	lui	a3,0x1000
1c0084dc:	4741                	li	a4,16
1c0084de:	f6d7e9e3          	bltu	a5,a3,1c008450 <__udivdi3+0xe6>
1c0084e2:	4761                	li	a4,24
1c0084e4:	b7b5                	j	1c008450 <__udivdi3+0xe6>
1c0084e6:	00c797b3          	sll	a5,a5,a2
1c0084ea:	00d5d333          	srl	t1,a1,a3
1c0084ee:	0107de13          	srli	t3,a5,0x10
1c0084f2:	00c59733          	sll	a4,a1,a2
1c0084f6:	00c518b3          	sll	a7,a0,a2
1c0084fa:	00d555b3          	srl	a1,a0,a3
1c0084fe:	03c35533          	divu	a0,t1,t3
1c008502:	8dd9                	or	a1,a1,a4
1c008504:	1007d733          	p.exthz	a4,a5
1c008508:	0105d693          	srli	a3,a1,0x10
1c00850c:	03c37633          	remu	a2,t1,t3
1c008510:	882a                	mv	a6,a0
1c008512:	02a70333          	mul	t1,a4,a0
1c008516:	0642                	slli	a2,a2,0x10
1c008518:	8ed1                	or	a3,a3,a2
1c00851a:	0066fc63          	bleu	t1,a3,1c008532 <__udivdi3+0x1c8>
1c00851e:	96be                	add	a3,a3,a5
1c008520:	fff50813          	addi	a6,a0,-1 # 7fffffff <pulp__FC+0x80000000>
1c008524:	00f6e763          	bltu	a3,a5,1c008532 <__udivdi3+0x1c8>
1c008528:	0066f563          	bleu	t1,a3,1c008532 <__udivdi3+0x1c8>
1c00852c:	ffe50813          	addi	a6,a0,-2
1c008530:	96be                	add	a3,a3,a5
1c008532:	406686b3          	sub	a3,a3,t1
1c008536:	03c6f633          	remu	a2,a3,t3
1c00853a:	03c6d6b3          	divu	a3,a3,t3
1c00853e:	df0625b3          	p.insert	a1,a2,15,16
1c008542:	02d70733          	mul	a4,a4,a3
1c008546:	8636                	mv	a2,a3
1c008548:	00e5fc63          	bleu	a4,a1,1c008560 <__udivdi3+0x1f6>
1c00854c:	95be                	add	a1,a1,a5
1c00854e:	fff68613          	addi	a2,a3,-1 # ffffff <__l1_heap_size+0xff4127>
1c008552:	00f5e763          	bltu	a1,a5,1c008560 <__udivdi3+0x1f6>
1c008556:	00e5f563          	bleu	a4,a1,1c008560 <__udivdi3+0x1f6>
1c00855a:	ffe68613          	addi	a2,a3,-2
1c00855e:	95be                	add	a1,a1,a5
1c008560:	0842                	slli	a6,a6,0x10
1c008562:	40e58733          	sub	a4,a1,a4
1c008566:	00c86833          	or	a6,a6,a2
1c00856a:	b701                	j	1c00846a <__udivdi3+0x100>
1c00856c:	12d5ea63          	bltu	a1,a3,1c0086a0 <__udivdi3+0x336>
1c008570:	67c1                	lui	a5,0x10
1c008572:	02f6fd63          	bleu	a5,a3,1c0085ac <__udivdi3+0x242>
1c008576:	0ff00793          	li	a5,255
1c00857a:	00d7b8b3          	sltu	a7,a5,a3
1c00857e:	088e                	slli	a7,a7,0x3
1c008580:	1c001737          	lui	a4,0x1c001
1c008584:	0116d7b3          	srl	a5,a3,a7
1c008588:	8e070713          	addi	a4,a4,-1824 # 1c0008e0 <__clz_tab>
1c00858c:	97ba                	add	a5,a5,a4
1c00858e:	0007c783          	lbu	a5,0(a5) # 10000 <__l1_heap_size+0x4128>
1c008592:	02000813          	li	a6,32
1c008596:	97c6                	add	a5,a5,a7
1c008598:	40f80833          	sub	a6,a6,a5
1c00859c:	00081f63          	bnez	a6,1c0085ba <__udivdi3+0x250>
1c0085a0:	4785                	li	a5,1
1c0085a2:	f2b6e8e3          	bltu	a3,a1,1c0084d2 <__udivdi3+0x168>
1c0085a6:	04a637b3          	p.sletu	a5,a2,a0
1c0085aa:	b725                	j	1c0084d2 <__udivdi3+0x168>
1c0085ac:	010007b7          	lui	a5,0x1000
1c0085b0:	48c1                	li	a7,16
1c0085b2:	fcf6e7e3          	bltu	a3,a5,1c008580 <__udivdi3+0x216>
1c0085b6:	48e1                	li	a7,24
1c0085b8:	b7e1                	j	1c008580 <__udivdi3+0x216>
1c0085ba:	00f658b3          	srl	a7,a2,a5
1c0085be:	010696b3          	sll	a3,a3,a6
1c0085c2:	00d8e6b3          	or	a3,a7,a3
1c0085c6:	00f5d333          	srl	t1,a1,a5
1c0085ca:	0106de13          	srli	t3,a3,0x10
1c0085ce:	00f55733          	srl	a4,a0,a5
1c0085d2:	03c377b3          	remu	a5,t1,t3
1c0085d6:	1006d8b3          	p.exthz	a7,a3
1c0085da:	010595b3          	sll	a1,a1,a6
1c0085de:	8f4d                	or	a4,a4,a1
1c0085e0:	01075593          	srli	a1,a4,0x10
1c0085e4:	01061633          	sll	a2,a2,a6
1c0085e8:	03c35333          	divu	t1,t1,t3
1c0085ec:	07c2                	slli	a5,a5,0x10
1c0085ee:	8ddd                	or	a1,a1,a5
1c0085f0:	02688eb3          	mul	t4,a7,t1
1c0085f4:	879a                	mv	a5,t1
1c0085f6:	01d5fc63          	bleu	t4,a1,1c00860e <__udivdi3+0x2a4>
1c0085fa:	95b6                	add	a1,a1,a3
1c0085fc:	fff30793          	addi	a5,t1,-1
1c008600:	00d5e763          	bltu	a1,a3,1c00860e <__udivdi3+0x2a4>
1c008604:	01d5f563          	bleu	t4,a1,1c00860e <__udivdi3+0x2a4>
1c008608:	ffe30793          	addi	a5,t1,-2
1c00860c:	95b6                	add	a1,a1,a3
1c00860e:	41d585b3          	sub	a1,a1,t4
1c008612:	03c5f333          	remu	t1,a1,t3
1c008616:	03c5d5b3          	divu	a1,a1,t3
1c00861a:	df032733          	p.insert	a4,t1,15,16
1c00861e:	02b888b3          	mul	a7,a7,a1
1c008622:	832e                	mv	t1,a1
1c008624:	01177c63          	bleu	a7,a4,1c00863c <__udivdi3+0x2d2>
1c008628:	9736                	add	a4,a4,a3
1c00862a:	fff58313          	addi	t1,a1,-1
1c00862e:	00d76763          	bltu	a4,a3,1c00863c <__udivdi3+0x2d2>
1c008632:	01177563          	bleu	a7,a4,1c00863c <__udivdi3+0x2d2>
1c008636:	ffe58313          	addi	t1,a1,-2
1c00863a:	9736                	add	a4,a4,a3
1c00863c:	07c2                	slli	a5,a5,0x10
1c00863e:	6e41                	lui	t3,0x10
1c008640:	0067e7b3          	or	a5,a5,t1
1c008644:	fffe0593          	addi	a1,t3,-1 # ffff <__l1_heap_size+0x4127>
1c008648:	00b7f6b3          	and	a3,a5,a1
1c00864c:	41170733          	sub	a4,a4,a7
1c008650:	8df1                	and	a1,a1,a2
1c008652:	0107d893          	srli	a7,a5,0x10
1c008656:	02b68333          	mul	t1,a3,a1
1c00865a:	8241                	srli	a2,a2,0x10
1c00865c:	02b885b3          	mul	a1,a7,a1
1c008660:	8eae                	mv	t4,a1
1c008662:	42c68eb3          	p.mac	t4,a3,a2
1c008666:	01035693          	srli	a3,t1,0x10
1c00866a:	96f6                	add	a3,a3,t4
1c00866c:	02c888b3          	mul	a7,a7,a2
1c008670:	00b6f363          	bleu	a1,a3,1c008676 <__udivdi3+0x30c>
1c008674:	98f2                	add	a7,a7,t3
1c008676:	0106d613          	srli	a2,a3,0x10
1c00867a:	98b2                	add	a7,a7,a2
1c00867c:	03176063          	bltu	a4,a7,1c00869c <__udivdi3+0x332>
1c008680:	db1713e3          	bne	a4,a7,1c008426 <__udivdi3+0xbc>
1c008684:	6741                	lui	a4,0x10
1c008686:	177d                	addi	a4,a4,-1
1c008688:	8ef9                	and	a3,a3,a4
1c00868a:	06c2                	slli	a3,a3,0x10
1c00868c:	00e37333          	and	t1,t1,a4
1c008690:	01051533          	sll	a0,a0,a6
1c008694:	969a                	add	a3,a3,t1
1c008696:	4801                	li	a6,0
1c008698:	e2d57de3          	bleu	a3,a0,1c0084d2 <__udivdi3+0x168>
1c00869c:	17fd                	addi	a5,a5,-1
1c00869e:	b361                	j	1c008426 <__udivdi3+0xbc>
1c0086a0:	4801                	li	a6,0
1c0086a2:	4781                	li	a5,0
1c0086a4:	b53d                	j	1c0084d2 <__udivdi3+0x168>

1c0086a6 <__umoddi3>:
1c0086a6:	88b2                	mv	a7,a2
1c0086a8:	8736                	mv	a4,a3
1c0086aa:	87aa                	mv	a5,a0
1c0086ac:	882e                	mv	a6,a1
1c0086ae:	1a069963          	bnez	a3,1c008860 <__umoddi3+0x1ba>
1c0086b2:	1c0016b7          	lui	a3,0x1c001
1c0086b6:	8e068693          	addi	a3,a3,-1824 # 1c0008e0 <__clz_tab>
1c0086ba:	0ac5f463          	bleu	a2,a1,1c008762 <__umoddi3+0xbc>
1c0086be:	6341                	lui	t1,0x10
1c0086c0:	08667a63          	bleu	t1,a2,1c008754 <__umoddi3+0xae>
1c0086c4:	0ff00313          	li	t1,255
1c0086c8:	00c37363          	bleu	a2,t1,1c0086ce <__umoddi3+0x28>
1c0086cc:	4721                	li	a4,8
1c0086ce:	00e65333          	srl	t1,a2,a4
1c0086d2:	969a                	add	a3,a3,t1
1c0086d4:	0006c683          	lbu	a3,0(a3)
1c0086d8:	02000313          	li	t1,32
1c0086dc:	9736                	add	a4,a4,a3
1c0086de:	40e30333          	sub	t1,t1,a4
1c0086e2:	00030c63          	beqz	t1,1c0086fa <__umoddi3+0x54>
1c0086e6:	006595b3          	sll	a1,a1,t1
1c0086ea:	00e55733          	srl	a4,a0,a4
1c0086ee:	006618b3          	sll	a7,a2,t1
1c0086f2:	00b76833          	or	a6,a4,a1
1c0086f6:	006517b3          	sll	a5,a0,t1
1c0086fa:	0108d613          	srli	a2,a7,0x10
1c0086fe:	02c87733          	remu	a4,a6,a2
1c008702:	1008d533          	p.exthz	a0,a7
1c008706:	0107d693          	srli	a3,a5,0x10
1c00870a:	02c85833          	divu	a6,a6,a2
1c00870e:	0742                	slli	a4,a4,0x10
1c008710:	8ed9                	or	a3,a3,a4
1c008712:	03050833          	mul	a6,a0,a6
1c008716:	0106f863          	bleu	a6,a3,1c008726 <__umoddi3+0x80>
1c00871a:	96c6                	add	a3,a3,a7
1c00871c:	0116e563          	bltu	a3,a7,1c008726 <__umoddi3+0x80>
1c008720:	0106f363          	bleu	a6,a3,1c008726 <__umoddi3+0x80>
1c008724:	96c6                	add	a3,a3,a7
1c008726:	410686b3          	sub	a3,a3,a6
1c00872a:	02c6f733          	remu	a4,a3,a2
1c00872e:	02c6d6b3          	divu	a3,a3,a2
1c008732:	df0727b3          	p.insert	a5,a4,15,16
1c008736:	02d506b3          	mul	a3,a0,a3
1c00873a:	00d7f863          	bleu	a3,a5,1c00874a <__umoddi3+0xa4>
1c00873e:	97c6                	add	a5,a5,a7
1c008740:	0117e563          	bltu	a5,a7,1c00874a <__umoddi3+0xa4>
1c008744:	00d7f363          	bleu	a3,a5,1c00874a <__umoddi3+0xa4>
1c008748:	97c6                	add	a5,a5,a7
1c00874a:	8f95                	sub	a5,a5,a3
1c00874c:	0067d533          	srl	a0,a5,t1
1c008750:	4581                	li	a1,0
1c008752:	8082                	ret
1c008754:	01000337          	lui	t1,0x1000
1c008758:	4741                	li	a4,16
1c00875a:	f6666ae3          	bltu	a2,t1,1c0086ce <__umoddi3+0x28>
1c00875e:	4761                	li	a4,24
1c008760:	b7bd                	j	1c0086ce <__umoddi3+0x28>
1c008762:	e601                	bnez	a2,1c00876a <__umoddi3+0xc4>
1c008764:	4605                	li	a2,1
1c008766:	031658b3          	divu	a7,a2,a7
1c00876a:	6641                	lui	a2,0x10
1c00876c:	06c8ff63          	bleu	a2,a7,1c0087ea <__umoddi3+0x144>
1c008770:	0ff00613          	li	a2,255
1c008774:	01167363          	bleu	a7,a2,1c00877a <__umoddi3+0xd4>
1c008778:	4721                	li	a4,8
1c00877a:	00e8d633          	srl	a2,a7,a4
1c00877e:	96b2                	add	a3,a3,a2
1c008780:	0006c603          	lbu	a2,0(a3)
1c008784:	02000313          	li	t1,32
1c008788:	963a                	add	a2,a2,a4
1c00878a:	40c30333          	sub	t1,t1,a2
1c00878e:	06031563          	bnez	t1,1c0087f8 <__umoddi3+0x152>
1c008792:	411585b3          	sub	a1,a1,a7
1c008796:	0108d713          	srli	a4,a7,0x10
1c00879a:	1008d533          	p.exthz	a0,a7
1c00879e:	0107d613          	srli	a2,a5,0x10
1c0087a2:	02e5f6b3          	remu	a3,a1,a4
1c0087a6:	02e5d5b3          	divu	a1,a1,a4
1c0087aa:	06c2                	slli	a3,a3,0x10
1c0087ac:	8ed1                	or	a3,a3,a2
1c0087ae:	02b505b3          	mul	a1,a0,a1
1c0087b2:	00b6f863          	bleu	a1,a3,1c0087c2 <__umoddi3+0x11c>
1c0087b6:	96c6                	add	a3,a3,a7
1c0087b8:	0116e563          	bltu	a3,a7,1c0087c2 <__umoddi3+0x11c>
1c0087bc:	00b6f363          	bleu	a1,a3,1c0087c2 <__umoddi3+0x11c>
1c0087c0:	96c6                	add	a3,a3,a7
1c0087c2:	40b685b3          	sub	a1,a3,a1
1c0087c6:	02e5f6b3          	remu	a3,a1,a4
1c0087ca:	02e5d5b3          	divu	a1,a1,a4
1c0087ce:	df06a7b3          	p.insert	a5,a3,15,16
1c0087d2:	02b505b3          	mul	a1,a0,a1
1c0087d6:	00b7f863          	bleu	a1,a5,1c0087e6 <__umoddi3+0x140>
1c0087da:	97c6                	add	a5,a5,a7
1c0087dc:	0117e563          	bltu	a5,a7,1c0087e6 <__umoddi3+0x140>
1c0087e0:	00b7f363          	bleu	a1,a5,1c0087e6 <__umoddi3+0x140>
1c0087e4:	97c6                	add	a5,a5,a7
1c0087e6:	8f8d                	sub	a5,a5,a1
1c0087e8:	b795                	j	1c00874c <__umoddi3+0xa6>
1c0087ea:	01000637          	lui	a2,0x1000
1c0087ee:	4741                	li	a4,16
1c0087f0:	f8c8e5e3          	bltu	a7,a2,1c00877a <__umoddi3+0xd4>
1c0087f4:	4761                	li	a4,24
1c0087f6:	b751                	j	1c00877a <__umoddi3+0xd4>
1c0087f8:	006898b3          	sll	a7,a7,t1
1c0087fc:	00c5d733          	srl	a4,a1,a2
1c008800:	006517b3          	sll	a5,a0,t1
1c008804:	00c55633          	srl	a2,a0,a2
1c008808:	006595b3          	sll	a1,a1,t1
1c00880c:	0108d513          	srli	a0,a7,0x10
1c008810:	8dd1                	or	a1,a1,a2
1c008812:	02a77633          	remu	a2,a4,a0
1c008816:	1008d833          	p.exthz	a6,a7
1c00881a:	0105d693          	srli	a3,a1,0x10
1c00881e:	02a75733          	divu	a4,a4,a0
1c008822:	0642                	slli	a2,a2,0x10
1c008824:	8ed1                	or	a3,a3,a2
1c008826:	02e80733          	mul	a4,a6,a4
1c00882a:	00e6f863          	bleu	a4,a3,1c00883a <__umoddi3+0x194>
1c00882e:	96c6                	add	a3,a3,a7
1c008830:	0116e563          	bltu	a3,a7,1c00883a <__umoddi3+0x194>
1c008834:	00e6f363          	bleu	a4,a3,1c00883a <__umoddi3+0x194>
1c008838:	96c6                	add	a3,a3,a7
1c00883a:	8e99                	sub	a3,a3,a4
1c00883c:	02a6f733          	remu	a4,a3,a0
1c008840:	02a6d6b3          	divu	a3,a3,a0
1c008844:	df0725b3          	p.insert	a1,a4,15,16
1c008848:	02d806b3          	mul	a3,a6,a3
1c00884c:	00d5f863          	bleu	a3,a1,1c00885c <__umoddi3+0x1b6>
1c008850:	95c6                	add	a1,a1,a7
1c008852:	0115e563          	bltu	a1,a7,1c00885c <__umoddi3+0x1b6>
1c008856:	00d5f363          	bleu	a3,a1,1c00885c <__umoddi3+0x1b6>
1c00885a:	95c6                	add	a1,a1,a7
1c00885c:	8d95                	sub	a1,a1,a3
1c00885e:	bf25                	j	1c008796 <__umoddi3+0xf0>
1c008860:	eed5e9e3          	bltu	a1,a3,1c008752 <__umoddi3+0xac>
1c008864:	6741                	lui	a4,0x10
1c008866:	04e6f563          	bleu	a4,a3,1c0088b0 <__umoddi3+0x20a>
1c00886a:	0ff00e93          	li	t4,255
1c00886e:	00deb733          	sltu	a4,t4,a3
1c008872:	070e                	slli	a4,a4,0x3
1c008874:	1c001337          	lui	t1,0x1c001
1c008878:	00e6d8b3          	srl	a7,a3,a4
1c00887c:	8e030313          	addi	t1,t1,-1824 # 1c0008e0 <__clz_tab>
1c008880:	989a                	add	a7,a7,t1
1c008882:	0008ce83          	lbu	t4,0(a7)
1c008886:	02000e13          	li	t3,32
1c00888a:	9eba                	add	t4,t4,a4
1c00888c:	41de0e33          	sub	t3,t3,t4
1c008890:	020e1763          	bnez	t3,1c0088be <__umoddi3+0x218>
1c008894:	00b6e463          	bltu	a3,a1,1c00889c <__umoddi3+0x1f6>
1c008898:	00c56963          	bltu	a0,a2,1c0088aa <__umoddi3+0x204>
1c00889c:	40c507b3          	sub	a5,a0,a2
1c0088a0:	8d95                	sub	a1,a1,a3
1c0088a2:	00f53533          	sltu	a0,a0,a5
1c0088a6:	40a58833          	sub	a6,a1,a0
1c0088aa:	853e                	mv	a0,a5
1c0088ac:	85c2                	mv	a1,a6
1c0088ae:	b555                	j	1c008752 <__umoddi3+0xac>
1c0088b0:	010008b7          	lui	a7,0x1000
1c0088b4:	4741                	li	a4,16
1c0088b6:	fb16efe3          	bltu	a3,a7,1c008874 <__umoddi3+0x1ce>
1c0088ba:	4761                	li	a4,24
1c0088bc:	bf65                	j	1c008874 <__umoddi3+0x1ce>
1c0088be:	01d65733          	srl	a4,a2,t4
1c0088c2:	01c696b3          	sll	a3,a3,t3
1c0088c6:	8ed9                	or	a3,a3,a4
1c0088c8:	01d5d7b3          	srl	a5,a1,t4
1c0088cc:	0106d813          	srli	a6,a3,0x10
1c0088d0:	0307f333          	remu	t1,a5,a6
1c0088d4:	1006d733          	p.exthz	a4,a3
1c0088d8:	01d558b3          	srl	a7,a0,t4
1c0088dc:	01c595b3          	sll	a1,a1,t3
1c0088e0:	00b8e5b3          	or	a1,a7,a1
1c0088e4:	0105d893          	srli	a7,a1,0x10
1c0088e8:	01c61633          	sll	a2,a2,t3
1c0088ec:	01c51533          	sll	a0,a0,t3
1c0088f0:	0307d7b3          	divu	a5,a5,a6
1c0088f4:	0342                	slli	t1,t1,0x10
1c0088f6:	011368b3          	or	a7,t1,a7
1c0088fa:	02f70f33          	mul	t5,a4,a5
1c0088fe:	833e                	mv	t1,a5
1c008900:	01e8fc63          	bleu	t5,a7,1c008918 <__umoddi3+0x272>
1c008904:	98b6                	add	a7,a7,a3
1c008906:	fff78313          	addi	t1,a5,-1 # ffffff <__l1_heap_size+0xff4127>
1c00890a:	00d8e763          	bltu	a7,a3,1c008918 <__umoddi3+0x272>
1c00890e:	01e8f563          	bleu	t5,a7,1c008918 <__umoddi3+0x272>
1c008912:	ffe78313          	addi	t1,a5,-2
1c008916:	98b6                	add	a7,a7,a3
1c008918:	41e888b3          	sub	a7,a7,t5
1c00891c:	0308f7b3          	remu	a5,a7,a6
1c008920:	0308d8b3          	divu	a7,a7,a6
1c008924:	df07a5b3          	p.insert	a1,a5,15,16
1c008928:	03170733          	mul	a4,a4,a7
1c00892c:	87c6                	mv	a5,a7
1c00892e:	00e5fc63          	bleu	a4,a1,1c008946 <__umoddi3+0x2a0>
1c008932:	95b6                	add	a1,a1,a3
1c008934:	fff88793          	addi	a5,a7,-1 # ffffff <__l1_heap_size+0xff4127>
1c008938:	00d5e763          	bltu	a1,a3,1c008946 <__umoddi3+0x2a0>
1c00893c:	00e5f563          	bleu	a4,a1,1c008946 <__umoddi3+0x2a0>
1c008940:	ffe88793          	addi	a5,a7,-2
1c008944:	95b6                	add	a1,a1,a3
1c008946:	0342                	slli	t1,t1,0x10
1c008948:	6f41                	lui	t5,0x10
1c00894a:	00f36333          	or	t1,t1,a5
1c00894e:	ffff0793          	addi	a5,t5,-1 # ffff <__l1_heap_size+0x4127>
1c008952:	00f37833          	and	a6,t1,a5
1c008956:	01035313          	srli	t1,t1,0x10
1c00895a:	8ff1                	and	a5,a5,a2
1c00895c:	02f808b3          	mul	a7,a6,a5
1c008960:	8d99                	sub	a1,a1,a4
1c008962:	01065713          	srli	a4,a2,0x10
1c008966:	02f307b3          	mul	a5,t1,a5
1c00896a:	8fbe                	mv	t6,a5
1c00896c:	42e80fb3          	p.mac	t6,a6,a4
1c008970:	0108d813          	srli	a6,a7,0x10
1c008974:	987e                	add	a6,a6,t6
1c008976:	02e30333          	mul	t1,t1,a4
1c00897a:	00f87363          	bleu	a5,a6,1c008980 <__umoddi3+0x2da>
1c00897e:	937a                	add	t1,t1,t5
1c008980:	01085713          	srli	a4,a6,0x10
1c008984:	933a                	add	t1,t1,a4
1c008986:	6741                	lui	a4,0x10
1c008988:	177d                	addi	a4,a4,-1
1c00898a:	00e87833          	and	a6,a6,a4
1c00898e:	0842                	slli	a6,a6,0x10
1c008990:	00e8f733          	and	a4,a7,a4
1c008994:	9742                	add	a4,a4,a6
1c008996:	0065e663          	bltu	a1,t1,1c0089a2 <__umoddi3+0x2fc>
1c00899a:	00659d63          	bne	a1,t1,1c0089b4 <__umoddi3+0x30e>
1c00899e:	00e57b63          	bleu	a4,a0,1c0089b4 <__umoddi3+0x30e>
1c0089a2:	40c70633          	sub	a2,a4,a2
1c0089a6:	00c73733          	sltu	a4,a4,a2
1c0089aa:	40d30333          	sub	t1,t1,a3
1c0089ae:	40e30333          	sub	t1,t1,a4
1c0089b2:	8732                	mv	a4,a2
1c0089b4:	40e50733          	sub	a4,a0,a4
1c0089b8:	00e53533          	sltu	a0,a0,a4
1c0089bc:	406585b3          	sub	a1,a1,t1
1c0089c0:	8d89                	sub	a1,a1,a0
1c0089c2:	01d597b3          	sll	a5,a1,t4
1c0089c6:	01c75733          	srl	a4,a4,t3
1c0089ca:	00e7e533          	or	a0,a5,a4
1c0089ce:	01c5d5b3          	srl	a1,a1,t3
1c0089d2:	b341                	j	1c008752 <__umoddi3+0xac>

1c0089d4 <__adddf3>:
1c0089d4:	00202ef3          	csrr	t4,0x2
1c0089d8:	e60597b3          	p.extractu	a5,a1,19,0
1c0089dc:	00379893          	slli	a7,a5,0x3
1c0089e0:	01d55793          	srli	a5,a0,0x1d
1c0089e4:	d5459f33          	p.extractu	t5,a1,10,20
1c0089e8:	d5469333          	p.extractu	t1,a3,10,20
1c0089ec:	0117e7b3          	or	a5,a5,a7
1c0089f0:	e60698b3          	p.extractu	a7,a3,19,0
1c0089f4:	01d65713          	srli	a4,a2,0x1d
1c0089f8:	088e                	slli	a7,a7,0x3
1c0089fa:	00361813          	slli	a6,a2,0x3
1c0089fe:	81fd                	srli	a1,a1,0x1f
1c008a00:	406f0633          	sub	a2,t5,t1
1c008a04:	82fd                	srli	a3,a3,0x1f
1c008a06:	050e                	slli	a0,a0,0x3
1c008a08:	01176733          	or	a4,a4,a7
1c008a0c:	8e32                	mv	t3,a2
1c008a0e:	38d59b63          	bne	a1,a3,1c008da4 <__adddf3+0x3d0>
1c008a12:	12c05263          	blez	a2,1c008b36 <__adddf3+0x162>
1c008a16:	08031663          	bnez	t1,1c008aa2 <__adddf3+0xce>
1c008a1a:	010766b3          	or	a3,a4,a6
1c008a1e:	e295                	bnez	a3,1c008a42 <__adddf3+0x6e>
1c008a20:	7ff00713          	li	a4,2047
1c008a24:	38e61b63          	bne	a2,a4,1c008dba <__adddf3+0x3e6>
1c008a28:	00a7e733          	or	a4,a5,a0
1c008a2c:	76070763          	beqz	a4,1c00919a <__adddf3+0x7c6>
1c008a30:	0167d713          	srli	a4,a5,0x16
1c008a34:	7ff00313          	li	t1,2047
1c008a38:	4e01                	li	t3,0
1c008a3a:	40070b63          	beqz	a4,1c008e50 <__adddf3+0x47c>
1c008a3e:	4881                	li	a7,0
1c008a40:	ac39                	j	1c008c5e <__adddf3+0x28a>
1c008a42:	167d                	addi	a2,a2,-1
1c008a44:	e221                	bnez	a2,1c008a84 <__adddf3+0xb0>
1c008a46:	982a                	add	a6,a6,a0
1c008a48:	97ba                	add	a5,a5,a4
1c008a4a:	00a83533          	sltu	a0,a6,a0
1c008a4e:	00a78733          	add	a4,a5,a0
1c008a52:	4305                	li	t1,1
1c008a54:	00871793          	slli	a5,a4,0x8
1c008a58:	0e07d963          	bgez	a5,1c008b4a <__adddf3+0x176>
1c008a5c:	0305                	addi	t1,t1,1
1c008a5e:	7ff00793          	li	a5,2047
1c008a62:	30f30f63          	beq	t1,a5,1c008d80 <__adddf3+0x3ac>
1c008a66:	c17737b3          	p.bclr	a5,a4,0,23
1c008a6a:	00185693          	srli	a3,a6,0x1
1c008a6e:	fc183833          	p.bclr	a6,a6,30,1
1c008a72:	01f79513          	slli	a0,a5,0x1f
1c008a76:	0106e833          	or	a6,a3,a6
1c008a7a:	01056533          	or	a0,a0,a6
1c008a7e:	8385                	srli	a5,a5,0x1
1c008a80:	4e01                	li	t3,0
1c008a82:	bf75                	j	1c008a3e <__adddf3+0x6a>
1c008a84:	7ff00693          	li	a3,2047
1c008a88:	02de1c63          	bne	t3,a3,1c008ac0 <__adddf3+0xec>
1c008a8c:	00a7e733          	or	a4,a5,a0
1c008a90:	70070563          	beqz	a4,1c00919a <__adddf3+0x7c6>
1c008a94:	00979313          	slli	t1,a5,0x9
1c008a98:	6e035d63          	bgez	t1,1c009192 <__adddf3+0x7be>
1c008a9c:	7ff00313          	li	t1,2047
1c008aa0:	b7c5                	j	1c008a80 <__adddf3+0xac>
1c008aa2:	7ff00693          	li	a3,2047
1c008aa6:	00df1b63          	bne	t5,a3,1c008abc <__adddf3+0xe8>
1c008aaa:	00a7e733          	or	a4,a5,a0
1c008aae:	6e070663          	beqz	a4,1c00919a <__adddf3+0x7c6>
1c008ab2:	00979613          	slli	a2,a5,0x9
1c008ab6:	7ff00313          	li	t1,2047
1c008aba:	a0e1                	j	1c008b82 <__adddf3+0x1ae>
1c008abc:	c1774733          	p.bset	a4,a4,0,23
1c008ac0:	03800693          	li	a3,56
1c008ac4:	06c6c463          	blt	a3,a2,1c008b2c <__adddf3+0x158>
1c008ac8:	46fd                	li	a3,31
1c008aca:	02c6cc63          	blt	a3,a2,1c008b02 <__adddf3+0x12e>
1c008ace:	02000893          	li	a7,32
1c008ad2:	40c888b3          	sub	a7,a7,a2
1c008ad6:	00c85333          	srl	t1,a6,a2
1c008ada:	011716b3          	sll	a3,a4,a7
1c008ade:	01181833          	sll	a6,a6,a7
1c008ae2:	0066e6b3          	or	a3,a3,t1
1c008ae6:	01003833          	snez	a6,a6
1c008aea:	0106e833          	or	a6,a3,a6
1c008aee:	00c75633          	srl	a2,a4,a2
1c008af2:	982a                	add	a6,a6,a0
1c008af4:	963e                	add	a2,a2,a5
1c008af6:	00a837b3          	sltu	a5,a6,a0
1c008afa:	00f60733          	add	a4,a2,a5
1c008afe:	837a                	mv	t1,t5
1c008b00:	bf91                	j	1c008a54 <__adddf3+0x80>
1c008b02:	02000313          	li	t1,32
1c008b06:	00c756b3          	srl	a3,a4,a2
1c008b0a:	4881                	li	a7,0
1c008b0c:	00660863          	beq	a2,t1,1c008b1c <__adddf3+0x148>
1c008b10:	04000893          	li	a7,64
1c008b14:	40c88633          	sub	a2,a7,a2
1c008b18:	00c718b3          	sll	a7,a4,a2
1c008b1c:	0108e833          	or	a6,a7,a6
1c008b20:	01003833          	snez	a6,a6
1c008b24:	0106e833          	or	a6,a3,a6
1c008b28:	4601                	li	a2,0
1c008b2a:	b7e1                	j	1c008af2 <__adddf3+0x11e>
1c008b2c:	01076833          	or	a6,a4,a6
1c008b30:	01003833          	snez	a6,a6
1c008b34:	bfd5                	j	1c008b28 <__adddf3+0x154>
1c008b36:	c66d                	beqz	a2,1c008c20 <__adddf3+0x24c>
1c008b38:	040f1963          	bnez	t5,1c008b8a <__adddf3+0x1b6>
1c008b3c:	00a7e6b3          	or	a3,a5,a0
1c008b40:	ea89                	bnez	a3,1c008b52 <__adddf3+0x17e>
1c008b42:	7ff00793          	li	a5,2047
1c008b46:	04f30663          	beq	t1,a5,1c008b92 <__adddf3+0x1be>
1c008b4a:	04031c63          	bnez	t1,1c008ba2 <__adddf3+0x1ce>
1c008b4e:	8542                	mv	a0,a6
1c008b50:	a999                	j	1c008fa6 <__adddf3+0x5d2>
1c008b52:	01f63a63          	p.bneimm	a2,-1,1c008b66 <__adddf3+0x192>
1c008b56:	010506b3          	add	a3,a0,a6
1c008b5a:	97ba                	add	a5,a5,a4
1c008b5c:	0106b733          	sltu	a4,a3,a6
1c008b60:	973e                	add	a4,a4,a5
1c008b62:	8836                	mv	a6,a3
1c008b64:	bdc5                	j	1c008a54 <__adddf3+0x80>
1c008b66:	7ff00693          	li	a3,2047
1c008b6a:	fff64613          	not	a2,a2
1c008b6e:	04d31163          	bne	t1,a3,1c008bb0 <__adddf3+0x1dc>
1c008b72:	01076533          	or	a0,a4,a6
1c008b76:	62050863          	beqz	a0,1c0091a6 <__adddf3+0x7d2>
1c008b7a:	00971613          	slli	a2,a4,0x9
1c008b7e:	87ba                	mv	a5,a4
1c008b80:	8542                	mv	a0,a6
1c008b82:	4e01                	li	t3,0
1c008b84:	2c065663          	bgez	a2,1c008e50 <__adddf3+0x47c>
1c008b88:	bd5d                	j	1c008a3e <__adddf3+0x6a>
1c008b8a:	7ff00693          	li	a3,2047
1c008b8e:	00d31d63          	bne	t1,a3,1c008ba8 <__adddf3+0x1d4>
1c008b92:	01076533          	or	a0,a4,a6
1c008b96:	60050863          	beqz	a0,1c0091a6 <__adddf3+0x7d2>
1c008b9a:	00971793          	slli	a5,a4,0x9
1c008b9e:	6007d663          	bgez	a5,1c0091aa <__adddf3+0x7d6>
1c008ba2:	87ba                	mv	a5,a4
1c008ba4:	8542                	mv	a0,a6
1c008ba6:	bde9                	j	1c008a80 <__adddf3+0xac>
1c008ba8:	40c00633          	neg	a2,a2
1c008bac:	c177c7b3          	p.bset	a5,a5,0,23
1c008bb0:	03800693          	li	a3,56
1c008bb4:	06c6c263          	blt	a3,a2,1c008c18 <__adddf3+0x244>
1c008bb8:	46fd                	li	a3,31
1c008bba:	02c6cb63          	blt	a3,a2,1c008bf0 <__adddf3+0x21c>
1c008bbe:	02000893          	li	a7,32
1c008bc2:	40c888b3          	sub	a7,a7,a2
1c008bc6:	00c55e33          	srl	t3,a0,a2
1c008bca:	011796b3          	sll	a3,a5,a7
1c008bce:	01151533          	sll	a0,a0,a7
1c008bd2:	01c6e6b3          	or	a3,a3,t3
1c008bd6:	00a03533          	snez	a0,a0
1c008bda:	8d55                	or	a0,a0,a3
1c008bdc:	00c7d633          	srl	a2,a5,a2
1c008be0:	9542                	add	a0,a0,a6
1c008be2:	00e607b3          	add	a5,a2,a4
1c008be6:	01053733          	sltu	a4,a0,a6
1c008bea:	973e                	add	a4,a4,a5
1c008bec:	882a                	mv	a6,a0
1c008bee:	b59d                	j	1c008a54 <__adddf3+0x80>
1c008bf0:	02000e13          	li	t3,32
1c008bf4:	00c7d6b3          	srl	a3,a5,a2
1c008bf8:	4881                	li	a7,0
1c008bfa:	01c60863          	beq	a2,t3,1c008c0a <__adddf3+0x236>
1c008bfe:	04000893          	li	a7,64
1c008c02:	40c88633          	sub	a2,a7,a2
1c008c06:	00c798b3          	sll	a7,a5,a2
1c008c0a:	00a8e533          	or	a0,a7,a0
1c008c0e:	00a03533          	snez	a0,a0
1c008c12:	8d55                	or	a0,a0,a3
1c008c14:	4601                	li	a2,0
1c008c16:	b7e9                	j	1c008be0 <__adddf3+0x20c>
1c008c18:	8d5d                	or	a0,a0,a5
1c008c1a:	00a03533          	snez	a0,a0
1c008c1e:	bfdd                	j	1c008c14 <__adddf3+0x240>
1c008c20:	001f0693          	addi	a3,t5,1
1c008c24:	e8b6b8b3          	p.bclr	a7,a3,20,11
1c008c28:	4605                	li	a2,1
1c008c2a:	0f164663          	blt	a2,a7,1c008d16 <__adddf3+0x342>
1c008c2e:	00a7e6b3          	or	a3,a5,a0
1c008c32:	040f1163          	bnez	t5,1c008c74 <__adddf3+0x2a0>
1c008c36:	de81                	beqz	a3,1c008b4e <__adddf3+0x17a>
1c008c38:	010766b3          	or	a3,a4,a6
1c008c3c:	52068663          	beqz	a3,1c009168 <__adddf3+0x794>
1c008c40:	982a                	add	a6,a6,a0
1c008c42:	97ba                	add	a5,a5,a4
1c008c44:	00a83533          	sltu	a0,a6,a0
1c008c48:	00a78733          	add	a4,a5,a0
1c008c4c:	00871313          	slli	t1,a4,0x8
1c008c50:	ee035fe3          	bgez	t1,1c008b4e <__adddf3+0x17a>
1c008c54:	c17737b3          	p.bclr	a5,a4,0,23
1c008c58:	8542                	mv	a0,a6
1c008c5a:	4881                	li	a7,0
1c008c5c:	4305                	li	t1,1
1c008c5e:	f8353733          	p.bclr	a4,a0,28,3
1c008c62:	e775                	bnez	a4,1c008d4e <__adddf3+0x37a>
1c008c64:	040e0b63          	beqz	t3,1c008cba <__adddf3+0x2e6>
1c008c68:	fc18b733          	p.bclr	a4,a7,30,1
1c008c6c:	c739                	beqz	a4,1c008cba <__adddf3+0x2e6>
1c008c6e:	c018c8b3          	p.bset	a7,a7,0,1
1c008c72:	a0a1                	j	1c008cba <__adddf3+0x2e6>
1c008c74:	7ff00613          	li	a2,2047
1c008c78:	08cf1a63          	bne	t5,a2,1c008d0c <__adddf3+0x338>
1c008c7c:	58068963          	beqz	a3,1c00920e <__adddf3+0x83a>
1c008c80:	004008b7          	lui	a7,0x400
1c008c84:	0117f8b3          	and	a7,a5,a7
1c008c88:	0018b893          	seqz	a7,a7
1c008c8c:	0892                	slli	a7,a7,0x4
1c008c8e:	01e31c63          	bne	t1,t5,1c008ca6 <__adddf3+0x2d2>
1c008c92:	01076633          	or	a2,a4,a6
1c008c96:	c611                	beqz	a2,1c008ca2 <__adddf3+0x2ce>
1c008c98:	00971613          	slli	a2,a4,0x9
1c008c9c:	00064363          	bltz	a2,1c008ca2 <__adddf3+0x2ce>
1c008ca0:	48c1                	li	a7,16
1c008ca2:	4e068563          	beqz	a3,1c00918c <__adddf3+0x7b8>
1c008ca6:	01076733          	or	a4,a4,a6
1c008caa:	3c070263          	beqz	a4,1c00906e <__adddf3+0x69a>
1c008cae:	004007b7          	lui	a5,0x400
1c008cb2:	4501                	li	a0,0
1c008cb4:	7ff00313          	li	t1,2047
1c008cb8:	4581                	li	a1,0
1c008cba:	00879713          	slli	a4,a5,0x8
1c008cbe:	00075963          	bgez	a4,1c008cd0 <__adddf3+0x2fc>
1c008cc2:	0305                	addi	t1,t1,1
1c008cc4:	7ff00713          	li	a4,2047
1c008cc8:	50e30e63          	beq	t1,a4,1c0091e4 <__adddf3+0x810>
1c008ccc:	c177b7b3          	p.bclr	a5,a5,0,23
1c008cd0:	01d79713          	slli	a4,a5,0x1d
1c008cd4:	810d                	srli	a0,a0,0x3
1c008cd6:	7ff00693          	li	a3,2047
1c008cda:	8f49                	or	a4,a4,a0
1c008cdc:	838d                	srli	a5,a5,0x3
1c008cde:	00d31963          	bne	t1,a3,1c008cf0 <__adddf3+0x31c>
1c008ce2:	8f5d                	or	a4,a4,a5
1c008ce4:	4781                	li	a5,0
1c008ce6:	c709                	beqz	a4,1c008cf0 <__adddf3+0x31c>
1c008ce8:	000807b7          	lui	a5,0x80
1c008cec:	4701                	li	a4,0
1c008cee:	4581                	li	a1,0
1c008cf0:	4681                	li	a3,0
1c008cf2:	e607a6b3          	p.insert	a3,a5,19,0
1c008cf6:	d54326b3          	p.insert	a3,t1,10,20
1c008cfa:	c1f5a6b3          	p.insert	a3,a1,0,31
1c008cfe:	853a                	mv	a0,a4
1c008d00:	85b6                	mv	a1,a3
1c008d02:	50088d63          	beqz	a7,1c00921c <__adddf3+0x848>
1c008d06:	0018a073          	csrs	0x1,a7
1c008d0a:	8082                	ret
1c008d0c:	4881                	li	a7,0
1c008d0e:	f8c31ae3          	bne	t1,a2,1c008ca2 <__adddf3+0x2ce>
1c008d12:	4881                	li	a7,0
1c008d14:	bfbd                	j	1c008c92 <__adddf3+0x2be>
1c008d16:	7ff00613          	li	a2,2047
1c008d1a:	02c68063          	beq	a3,a2,1c008d3a <__adddf3+0x366>
1c008d1e:	982a                	add	a6,a6,a0
1c008d20:	00a83533          	sltu	a0,a6,a0
1c008d24:	97ba                	add	a5,a5,a4
1c008d26:	97aa                	add	a5,a5,a0
1c008d28:	01f79513          	slli	a0,a5,0x1f
1c008d2c:	00185813          	srli	a6,a6,0x1
1c008d30:	01056533          	or	a0,a0,a6
1c008d34:	8385                	srli	a5,a5,0x1
1c008d36:	8336                	mv	t1,a3
1c008d38:	b319                	j	1c008a3e <__adddf3+0x6a>
1c008d3a:	040e8063          	beqz	t4,1c008d7a <__adddf3+0x3a6>
1c008d3e:	023ebb63          	p.bneimm	t4,3,1c008d74 <__adddf3+0x3a0>
1c008d42:	cd85                	beqz	a1,1c008d7a <__adddf3+0x3a6>
1c008d44:	57fd                	li	a5,-1
1c008d46:	557d                	li	a0,-1
1c008d48:	7fe00313          	li	t1,2046
1c008d4c:	4895                	li	a7,5
1c008d4e:	c008c8b3          	p.bset	a7,a7,0,0
1c008d52:	482ea663          	p.beqimm	t4,2,1c0091de <__adddf3+0x80a>
1c008d56:	463eaf63          	p.beqimm	t4,3,1c0091d4 <__adddf3+0x800>
1c008d5a:	f00e95e3          	bnez	t4,1c008c64 <__adddf3+0x290>
1c008d5e:	f6453733          	p.bclr	a4,a0,27,4
1c008d62:	f04721e3          	p.beqimm	a4,4,1c008c64 <__adddf3+0x290>
1c008d66:	00450713          	addi	a4,a0,4
1c008d6a:	00a73533          	sltu	a0,a4,a0
1c008d6e:	97aa                	add	a5,a5,a0
1c008d70:	853a                	mv	a0,a4
1c008d72:	bdcd                	j	1c008c64 <__adddf3+0x290>
1c008d74:	fc2eb8e3          	p.bneimm	t4,2,1c008d44 <__adddf3+0x370>
1c008d78:	d5f1                	beqz	a1,1c008d44 <__adddf3+0x370>
1c008d7a:	7ff00313          	li	t1,2047
1c008d7e:	a839                	j	1c008d9c <__adddf3+0x3c8>
1c008d80:	000e8e63          	beqz	t4,1c008d9c <__adddf3+0x3c8>
1c008d84:	003eb963          	p.bneimm	t4,3,1c008d96 <__adddf3+0x3c2>
1c008d88:	c991                	beqz	a1,1c008d9c <__adddf3+0x3c8>
1c008d8a:	57fd                	li	a5,-1
1c008d8c:	557d                	li	a0,-1
1c008d8e:	7fe00313          	li	t1,2046
1c008d92:	4e01                	li	t3,0
1c008d94:	bf65                	j	1c008d4c <__adddf3+0x378>
1c008d96:	fe2ebae3          	p.bneimm	t4,2,1c008d8a <__adddf3+0x3b6>
1c008d9a:	d9e5                	beqz	a1,1c008d8a <__adddf3+0x3b6>
1c008d9c:	4781                	li	a5,0
1c008d9e:	4501                	li	a0,0
1c008da0:	4895                	li	a7,5
1c008da2:	bf21                	j	1c008cba <__adddf3+0x2e6>
1c008da4:	0ec05563          	blez	a2,1c008e8e <__adddf3+0x4ba>
1c008da8:	08031563          	bnez	t1,1c008e32 <__adddf3+0x45e>
1c008dac:	010766b3          	or	a3,a4,a6
1c008db0:	e699                	bnez	a3,1c008dbe <__adddf3+0x3ea>
1c008db2:	7ff00713          	li	a4,2047
1c008db6:	cce60be3          	beq	a2,a4,1c008a8c <__adddf3+0xb8>
1c008dba:	8332                	mv	t1,a2
1c008dbc:	b1d1                	j	1c008a80 <__adddf3+0xac>
1c008dbe:	167d                	addi	a2,a2,-1
1c008dc0:	e215                	bnez	a2,1c008de4 <__adddf3+0x410>
1c008dc2:	41050833          	sub	a6,a0,a6
1c008dc6:	8f99                	sub	a5,a5,a4
1c008dc8:	01053533          	sltu	a0,a0,a6
1c008dcc:	40a78733          	sub	a4,a5,a0
1c008dd0:	4305                	li	t1,1
1c008dd2:	00871613          	slli	a2,a4,0x8
1c008dd6:	d6065ae3          	bgez	a2,1c008b4a <__adddf3+0x176>
1c008dda:	d1773633          	p.bclr	a2,a4,8,23
1c008dde:	88c2                	mv	a7,a6
1c008de0:	8f1a                	mv	t5,t1
1c008de2:	a4e9                	j	1c0090ac <__adddf3+0x6d8>
1c008de4:	7ff00693          	li	a3,2047
1c008de8:	ccde01e3          	beq	t3,a3,1c008aaa <__adddf3+0xd6>
1c008dec:	03800693          	li	a3,56
1c008df0:	08c6ca63          	blt	a3,a2,1c008e84 <__adddf3+0x4b0>
1c008df4:	46fd                	li	a3,31
1c008df6:	06c6c263          	blt	a3,a2,1c008e5a <__adddf3+0x486>
1c008dfa:	02000893          	li	a7,32
1c008dfe:	40c888b3          	sub	a7,a7,a2
1c008e02:	00c85333          	srl	t1,a6,a2
1c008e06:	011716b3          	sll	a3,a4,a7
1c008e0a:	01181833          	sll	a6,a6,a7
1c008e0e:	0066e6b3          	or	a3,a3,t1
1c008e12:	01003833          	snez	a6,a6
1c008e16:	0106e833          	or	a6,a3,a6
1c008e1a:	00c75633          	srl	a2,a4,a2
1c008e1e:	41050833          	sub	a6,a0,a6
1c008e22:	40c78633          	sub	a2,a5,a2
1c008e26:	010537b3          	sltu	a5,a0,a6
1c008e2a:	40f60733          	sub	a4,a2,a5
1c008e2e:	837a                	mv	t1,t5
1c008e30:	b74d                	j	1c008dd2 <__adddf3+0x3fe>
1c008e32:	7ff00693          	li	a3,2047
1c008e36:	00df1f63          	bne	t5,a3,1c008e54 <__adddf3+0x480>
1c008e3a:	00a7e733          	or	a4,a5,a0
1c008e3e:	34070e63          	beqz	a4,1c00919a <__adddf3+0x7c6>
1c008e42:	00979713          	slli	a4,a5,0x9
1c008e46:	7ff00313          	li	t1,2047
1c008e4a:	4e01                	li	t3,0
1c008e4c:	be0749e3          	bltz	a4,1c008a3e <__adddf3+0x6a>
1c008e50:	48c1                	li	a7,16
1c008e52:	b531                	j	1c008c5e <__adddf3+0x28a>
1c008e54:	c1774733          	p.bset	a4,a4,0,23
1c008e58:	bf51                	j	1c008dec <__adddf3+0x418>
1c008e5a:	02000313          	li	t1,32
1c008e5e:	00c756b3          	srl	a3,a4,a2
1c008e62:	4881                	li	a7,0
1c008e64:	00660863          	beq	a2,t1,1c008e74 <__adddf3+0x4a0>
1c008e68:	04000893          	li	a7,64
1c008e6c:	40c88633          	sub	a2,a7,a2
1c008e70:	00c718b3          	sll	a7,a4,a2
1c008e74:	0108e833          	or	a6,a7,a6
1c008e78:	01003833          	snez	a6,a6
1c008e7c:	0106e833          	or	a6,a3,a6
1c008e80:	4601                	li	a2,0
1c008e82:	bf71                	j	1c008e1e <__adddf3+0x44a>
1c008e84:	01076833          	or	a6,a4,a6
1c008e88:	01003833          	snez	a6,a6
1c008e8c:	bfd5                	j	1c008e80 <__adddf3+0x4ac>
1c008e8e:	c66d                	beqz	a2,1c008f78 <__adddf3+0x5a4>
1c008e90:	040f1663          	bnez	t5,1c008edc <__adddf3+0x508>
1c008e94:	00a7e5b3          	or	a1,a5,a0
1c008e98:	e589                	bnez	a1,1c008ea2 <__adddf3+0x4ce>
1c008e9a:	7ff00793          	li	a5,2047
1c008e9e:	85b6                	mv	a1,a3
1c008ea0:	b15d                	j	1c008b46 <__adddf3+0x172>
1c008ea2:	01f63d63          	p.bneimm	a2,-1,1c008ebc <__adddf3+0x4e8>
1c008ea6:	40a805b3          	sub	a1,a6,a0
1c008eaa:	40f707b3          	sub	a5,a4,a5
1c008eae:	00b83733          	sltu	a4,a6,a1
1c008eb2:	40e78733          	sub	a4,a5,a4
1c008eb6:	882e                	mv	a6,a1
1c008eb8:	85b6                	mv	a1,a3
1c008eba:	bf21                	j	1c008dd2 <__adddf3+0x3fe>
1c008ebc:	7ff00593          	li	a1,2047
1c008ec0:	fff64613          	not	a2,a2
1c008ec4:	04b31063          	bne	t1,a1,1c008f04 <__adddf3+0x530>
1c008ec8:	01076533          	or	a0,a4,a6
1c008ecc:	2e050263          	beqz	a0,1c0091b0 <__adddf3+0x7dc>
1c008ed0:	00971613          	slli	a2,a4,0x9
1c008ed4:	87ba                	mv	a5,a4
1c008ed6:	8542                	mv	a0,a6
1c008ed8:	85b6                	mv	a1,a3
1c008eda:	b165                	j	1c008b82 <__adddf3+0x1ae>
1c008edc:	7ff00593          	li	a1,2047
1c008ee0:	00b31e63          	bne	t1,a1,1c008efc <__adddf3+0x528>
1c008ee4:	01076533          	or	a0,a4,a6
1c008ee8:	2c050463          	beqz	a0,1c0091b0 <__adddf3+0x7dc>
1c008eec:	00971793          	slli	a5,a4,0x9
1c008ef0:	2c07d363          	bgez	a5,1c0091b6 <__adddf3+0x7e2>
1c008ef4:	87ba                	mv	a5,a4
1c008ef6:	8542                	mv	a0,a6
1c008ef8:	85b6                	mv	a1,a3
1c008efa:	b659                	j	1c008a80 <__adddf3+0xac>
1c008efc:	40c00633          	neg	a2,a2
1c008f00:	c177c7b3          	p.bset	a5,a5,0,23
1c008f04:	03800593          	li	a1,56
1c008f08:	06c5c463          	blt	a1,a2,1c008f70 <__adddf3+0x59c>
1c008f0c:	45fd                	li	a1,31
1c008f0e:	02c5cd63          	blt	a1,a2,1c008f48 <__adddf3+0x574>
1c008f12:	02000893          	li	a7,32
1c008f16:	40c888b3          	sub	a7,a7,a2
1c008f1a:	00c55e33          	srl	t3,a0,a2
1c008f1e:	011795b3          	sll	a1,a5,a7
1c008f22:	01151533          	sll	a0,a0,a7
1c008f26:	01c5e5b3          	or	a1,a1,t3
1c008f2a:	00a03533          	snez	a0,a0
1c008f2e:	8d4d                	or	a0,a0,a1
1c008f30:	00c7d633          	srl	a2,a5,a2
1c008f34:	40a80533          	sub	a0,a6,a0
1c008f38:	40c707b3          	sub	a5,a4,a2
1c008f3c:	00a83733          	sltu	a4,a6,a0
1c008f40:	40e78733          	sub	a4,a5,a4
1c008f44:	882a                	mv	a6,a0
1c008f46:	bf8d                	j	1c008eb8 <__adddf3+0x4e4>
1c008f48:	02000e13          	li	t3,32
1c008f4c:	00c7d5b3          	srl	a1,a5,a2
1c008f50:	4881                	li	a7,0
1c008f52:	01c60863          	beq	a2,t3,1c008f62 <__adddf3+0x58e>
1c008f56:	04000893          	li	a7,64
1c008f5a:	40c88633          	sub	a2,a7,a2
1c008f5e:	00c798b3          	sll	a7,a5,a2
1c008f62:	00a8e533          	or	a0,a7,a0
1c008f66:	00a03533          	snez	a0,a0
1c008f6a:	8d4d                	or	a0,a0,a1
1c008f6c:	4601                	li	a2,0
1c008f6e:	b7d9                	j	1c008f34 <__adddf3+0x560>
1c008f70:	8d5d                	or	a0,a0,a5
1c008f72:	00a03533          	snez	a0,a0
1c008f76:	bfdd                	j	1c008f6c <__adddf3+0x598>
1c008f78:	001f0613          	addi	a2,t5,1
1c008f7c:	e8b63633          	p.bclr	a2,a2,20,11
1c008f80:	4885                	li	a7,1
1c008f82:	10c8c063          	blt	a7,a2,1c009082 <__adddf3+0x6ae>
1c008f86:	00a7efb3          	or	t6,a5,a0
1c008f8a:	01076633          	or	a2,a4,a6
1c008f8e:	0a0f1463          	bnez	t5,1c009036 <__adddf3+0x662>
1c008f92:	060f9063          	bnez	t6,1c008ff2 <__adddf3+0x61e>
1c008f96:	1c061763          	bnez	a2,1c009164 <__adddf3+0x790>
1c008f9a:	ffee8593          	addi	a1,t4,-2
1c008f9e:	0015b593          	seqz	a1,a1
1c008fa2:	4701                	li	a4,0
1c008fa4:	4501                	li	a0,0
1c008fa6:	00e567b3          	or	a5,a0,a4
1c008faa:	22078263          	beqz	a5,1c0091ce <__adddf3+0x7fa>
1c008fae:	01f55793          	srli	a5,a0,0x1f
1c008fb2:	00171e13          	slli	t3,a4,0x1
1c008fb6:	9e3e                	add	t3,t3,a5
1c008fb8:	00151793          	slli	a5,a0,0x1
1c008fbc:	f837b6b3          	p.bclr	a3,a5,28,3
1c008fc0:	4881                	li	a7,0
1c008fc2:	ce99                	beqz	a3,1c008fe0 <__adddf3+0x60c>
1c008fc4:	1c2ea063          	p.beqimm	t4,2,1c009184 <__adddf3+0x7b0>
1c008fc8:	1a3ea563          	p.beqimm	t4,3,1c009172 <__adddf3+0x79e>
1c008fcc:	4885                	li	a7,1
1c008fce:	000e9963          	bnez	t4,1c008fe0 <__adddf3+0x60c>
1c008fd2:	f647b6b3          	p.bclr	a3,a5,27,4
1c008fd6:	4885                	li	a7,1
1c008fd8:	ffc7b793          	sltiu	a5,a5,-4
1c008fdc:	1a46b063          	p.bneimm	a3,4,1c00917c <__adddf3+0x7a8>
1c008fe0:	018e5e13          	srli	t3,t3,0x18
1c008fe4:	001e4e13          	xori	t3,t3,1
1c008fe8:	fc1e3e33          	p.bclr	t3,t3,30,1
1c008fec:	87ba                	mv	a5,a4
1c008fee:	4301                	li	t1,0
1c008ff0:	b1bd                	j	1c008c5e <__adddf3+0x28a>
1c008ff2:	16060b63          	beqz	a2,1c009168 <__adddf3+0x794>
1c008ff6:	410508b3          	sub	a7,a0,a6
1c008ffa:	01153333          	sltu	t1,a0,a7
1c008ffe:	40e78633          	sub	a2,a5,a4
1c009002:	40660633          	sub	a2,a2,t1
1c009006:	00861313          	slli	t1,a2,0x8
1c00900a:	00035c63          	bgez	t1,1c009022 <__adddf3+0x64e>
1c00900e:	40a80533          	sub	a0,a6,a0
1c009012:	40f707b3          	sub	a5,a4,a5
1c009016:	00a83733          	sltu	a4,a6,a0
1c00901a:	40e78733          	sub	a4,a5,a4
1c00901e:	85b6                	mv	a1,a3
1c009020:	b759                	j	1c008fa6 <__adddf3+0x5d2>
1c009022:	00c8e533          	or	a0,a7,a2
1c009026:	14051363          	bnez	a0,1c00916c <__adddf3+0x798>
1c00902a:	ffee8593          	addi	a1,t4,-2
1c00902e:	0015b593          	seqz	a1,a1
1c009032:	4701                	li	a4,0
1c009034:	bf8d                	j	1c008fa6 <__adddf3+0x5d2>
1c009036:	7ff00293          	li	t0,2047
1c00903a:	025f1d63          	bne	t5,t0,1c009074 <__adddf3+0x6a0>
1c00903e:	1c0f8463          	beqz	t6,1c009206 <__adddf3+0x832>
1c009042:	004008b7          	lui	a7,0x400
1c009046:	0117f8b3          	and	a7,a5,a7
1c00904a:	0018b893          	seqz	a7,a7
1c00904e:	0892                	slli	a7,a7,0x4
1c009050:	03e31763          	bne	t1,t5,1c00907e <__adddf3+0x6aa>
1c009054:	c611                	beqz	a2,1c009060 <__adddf3+0x68c>
1c009056:	00971313          	slli	t1,a4,0x9
1c00905a:	00034363          	bltz	t1,1c009060 <__adddf3+0x68c>
1c00905e:	48c1                	li	a7,16
1c009060:	000f9f63          	bnez	t6,1c00907e <__adddf3+0x6aa>
1c009064:	14060d63          	beqz	a2,1c0091be <__adddf3+0x7ea>
1c009068:	87ba                	mv	a5,a4
1c00906a:	8542                	mv	a0,a6
1c00906c:	85b6                	mv	a1,a3
1c00906e:	7ff00313          	li	t1,2047
1c009072:	b6f5                	j	1c008c5e <__adddf3+0x28a>
1c009074:	4881                	li	a7,0
1c009076:	fe5315e3          	bne	t1,t0,1c009060 <__adddf3+0x68c>
1c00907a:	4881                	li	a7,0
1c00907c:	bfe1                	j	1c009054 <__adddf3+0x680>
1c00907e:	da65                	beqz	a2,1c00906e <__adddf3+0x69a>
1c009080:	b13d                	j	1c008cae <__adddf3+0x2da>
1c009082:	410508b3          	sub	a7,a0,a6
1c009086:	01153333          	sltu	t1,a0,a7
1c00908a:	40e78633          	sub	a2,a5,a4
1c00908e:	40660633          	sub	a2,a2,t1
1c009092:	00861313          	slli	t1,a2,0x8
1c009096:	06035c63          	bgez	t1,1c00910e <__adddf3+0x73a>
1c00909a:	40a808b3          	sub	a7,a6,a0
1c00909e:	40f707b3          	sub	a5,a4,a5
1c0090a2:	01183733          	sltu	a4,a6,a7
1c0090a6:	40e78633          	sub	a2,a5,a4
1c0090aa:	85b6                	mv	a1,a3
1c0090ac:	c62d                	beqz	a2,1c009116 <__adddf3+0x742>
1c0090ae:	100616b3          	p.fl1	a3,a2
1c0090b2:	47fd                	li	a5,31
1c0090b4:	40d786b3          	sub	a3,a5,a3
1c0090b8:	ff868313          	addi	t1,a3,-8
1c0090bc:	47fd                	li	a5,31
1c0090be:	0667c463          	blt	a5,t1,1c009126 <__adddf3+0x752>
1c0090c2:	02000793          	li	a5,32
1c0090c6:	406787b3          	sub	a5,a5,t1
1c0090ca:	00661633          	sll	a2,a2,t1
1c0090ce:	00f8d733          	srl	a4,a7,a5
1c0090d2:	00c767b3          	or	a5,a4,a2
1c0090d6:	00689833          	sll	a6,a7,t1
1c0090da:	09e34063          	blt	t1,t5,1c00915a <__adddf3+0x786>
1c0090de:	41e30333          	sub	t1,t1,t5
1c0090e2:	00130713          	addi	a4,t1,1
1c0090e6:	46fd                	li	a3,31
1c0090e8:	04e6c563          	blt	a3,a4,1c009132 <__adddf3+0x75e>
1c0090ec:	02000693          	li	a3,32
1c0090f0:	8e99                	sub	a3,a3,a4
1c0090f2:	00e85633          	srl	a2,a6,a4
1c0090f6:	00d79533          	sll	a0,a5,a3
1c0090fa:	00d81833          	sll	a6,a6,a3
1c0090fe:	8d51                	or	a0,a0,a2
1c009100:	01003833          	snez	a6,a6
1c009104:	01056533          	or	a0,a0,a6
1c009108:	00e7d733          	srl	a4,a5,a4
1c00910c:	bd69                	j	1c008fa6 <__adddf3+0x5d2>
1c00910e:	00c8e533          	or	a0,a7,a2
1c009112:	fd49                	bnez	a0,1c0090ac <__adddf3+0x6d8>
1c009114:	bf19                	j	1c00902a <__adddf3+0x656>
1c009116:	100896b3          	p.fl1	a3,a7
1c00911a:	47fd                	li	a5,31
1c00911c:	40d786b3          	sub	a3,a5,a3
1c009120:	02068693          	addi	a3,a3,32
1c009124:	bf51                	j	1c0090b8 <__adddf3+0x6e4>
1c009126:	fd868793          	addi	a5,a3,-40
1c00912a:	00f897b3          	sll	a5,a7,a5
1c00912e:	4801                	li	a6,0
1c009130:	b76d                	j	1c0090da <__adddf3+0x706>
1c009132:	1305                	addi	t1,t1,-31
1c009134:	02000693          	li	a3,32
1c009138:	0067d333          	srl	t1,a5,t1
1c00913c:	4601                	li	a2,0
1c00913e:	00d70763          	beq	a4,a3,1c00914c <__adddf3+0x778>
1c009142:	04000613          	li	a2,64
1c009146:	8e19                	sub	a2,a2,a4
1c009148:	00c79633          	sll	a2,a5,a2
1c00914c:	00c86533          	or	a0,a6,a2
1c009150:	00a03533          	snez	a0,a0
1c009154:	00a36533          	or	a0,t1,a0
1c009158:	bde9                	j	1c009032 <__adddf3+0x65e>
1c00915a:	406f0333          	sub	t1,t5,t1
1c00915e:	c177b733          	p.bclr	a4,a5,0,23
1c009162:	b2e5                	j	1c008b4a <__adddf3+0x176>
1c009164:	8542                	mv	a0,a6
1c009166:	bd65                	j	1c00901e <__adddf3+0x64a>
1c009168:	873e                	mv	a4,a5
1c00916a:	bd35                	j	1c008fa6 <__adddf3+0x5d2>
1c00916c:	8732                	mv	a4,a2
1c00916e:	8546                	mv	a0,a7
1c009170:	bd1d                	j	1c008fa6 <__adddf3+0x5d2>
1c009172:	4885                	li	a7,1
1c009174:	e60596e3          	bnez	a1,1c008fe0 <__adddf3+0x60c>
1c009178:	ff87b793          	sltiu	a5,a5,-8
1c00917c:	0017c793          	xori	a5,a5,1
1c009180:	9e3e                	add	t3,t3,a5
1c009182:	bdb9                	j	1c008fe0 <__adddf3+0x60c>
1c009184:	4885                	li	a7,1
1c009186:	e4058de3          	beqz	a1,1c008fe0 <__adddf3+0x60c>
1c00918a:	b7fd                	j	1c009178 <__adddf3+0x7a4>
1c00918c:	87ba                	mv	a5,a4
1c00918e:	8542                	mv	a0,a6
1c009190:	bdf9                	j	1c00906e <__adddf3+0x69a>
1c009192:	7ff00313          	li	t1,2047
1c009196:	4e01                	li	t3,0
1c009198:	b965                	j	1c008e50 <__adddf3+0x47c>
1c00919a:	4781                	li	a5,0
1c00919c:	4501                	li	a0,0
1c00919e:	7ff00313          	li	t1,2047
1c0091a2:	4881                	li	a7,0
1c0091a4:	be19                	j	1c008cba <__adddf3+0x2e6>
1c0091a6:	4781                	li	a5,0
1c0091a8:	bfed                	j	1c0091a2 <__adddf3+0x7ce>
1c0091aa:	87ba                	mv	a5,a4
1c0091ac:	8542                	mv	a0,a6
1c0091ae:	b7e5                	j	1c009196 <__adddf3+0x7c2>
1c0091b0:	4781                	li	a5,0
1c0091b2:	85b6                	mv	a1,a3
1c0091b4:	b7fd                	j	1c0091a2 <__adddf3+0x7ce>
1c0091b6:	87ba                	mv	a5,a4
1c0091b8:	8542                	mv	a0,a6
1c0091ba:	85b6                	mv	a1,a3
1c0091bc:	bfe9                	j	1c009196 <__adddf3+0x7c2>
1c0091be:	4501                	li	a0,0
1c0091c0:	004007b7          	lui	a5,0x400
1c0091c4:	7ff00313          	li	t1,2047
1c0091c8:	4581                	li	a1,0
1c0091ca:	48c1                	li	a7,16
1c0091cc:	b4fd                	j	1c008cba <__adddf3+0x2e6>
1c0091ce:	4501                	li	a0,0
1c0091d0:	4301                	li	t1,0
1c0091d2:	bfc1                	j	1c0091a2 <__adddf3+0x7ce>
1c0091d4:	a80598e3          	bnez	a1,1c008c64 <__adddf3+0x290>
1c0091d8:	00850713          	addi	a4,a0,8
1c0091dc:	b679                	j	1c008d6a <__adddf3+0x396>
1c0091de:	a80583e3          	beqz	a1,1c008c64 <__adddf3+0x290>
1c0091e2:	bfdd                	j	1c0091d8 <__adddf3+0x804>
1c0091e4:	4501                	li	a0,0
1c0091e6:	000e8c63          	beqz	t4,1c0091fe <__adddf3+0x82a>
1c0091ea:	003eb763          	p.bneimm	t4,3,1c0091f8 <__adddf3+0x824>
1c0091ee:	c981                	beqz	a1,1c0091fe <__adddf3+0x82a>
1c0091f0:	557d                	li	a0,-1
1c0091f2:	7fe00313          	li	t1,2046
1c0091f6:	a021                	j	1c0091fe <__adddf3+0x82a>
1c0091f8:	fe2ebce3          	p.bneimm	t4,2,1c0091f0 <__adddf3+0x81c>
1c0091fc:	d9f5                	beqz	a1,1c0091f0 <__adddf3+0x81c>
1c0091fe:	0058e893          	ori	a7,a7,5
1c009202:	87aa                	mv	a5,a0
1c009204:	b4f1                	j	1c008cd0 <__adddf3+0x2fc>
1c009206:	4881                	li	a7,0
1c009208:	e5e31ee3          	bne	t1,t5,1c009064 <__adddf3+0x690>
1c00920c:	b5bd                	j	1c00907a <__adddf3+0x6a6>
1c00920e:	b1e302e3          	beq	t1,t5,1c008d12 <__adddf3+0x33e>
1c009212:	87ba                	mv	a5,a4
1c009214:	8542                	mv	a0,a6
1c009216:	7ff00313          	li	t1,2047
1c00921a:	b015                	j	1c008a3e <__adddf3+0x6a>
1c00921c:	8082                	ret

1c00921e <__divdf3>:
1c00921e:	1141                	addi	sp,sp,-16
1c009220:	c622                	sw	s0,12(sp)
1c009222:	c426                	sw	s1,8(sp)
1c009224:	c24a                	sw	s2,4(sp)
1c009226:	c04e                	sw	s3,0(sp)
1c009228:	00202373          	csrr	t1,0x2
1c00922c:	d5459e33          	p.extractu	t3,a1,10,20
1c009230:	e6059fb3          	p.extractu	t6,a1,19,0
1c009234:	81fd                	srli	a1,a1,0x1f
1c009236:	020e0463          	beqz	t3,1c00925e <__divdf3+0x40>
1c00923a:	7ff00793          	li	a5,2047
1c00923e:	06fe0f63          	beq	t3,a5,1c0092bc <__divdf3+0x9e>
1c009242:	0f8e                	slli	t6,t6,0x3
1c009244:	c17fcfb3          	p.bset	t6,t6,0,23
1c009248:	01d55793          	srli	a5,a0,0x1d
1c00924c:	01f7efb3          	or	t6,a5,t6
1c009250:	00351813          	slli	a6,a0,0x3
1c009254:	c01e0e93          	addi	t4,t3,-1023
1c009258:	4281                	li	t0,0
1c00925a:	4881                	li	a7,0
1c00925c:	a8a5                	j	1c0092d4 <__divdf3+0xb6>
1c00925e:	00afe7b3          	or	a5,t6,a0
1c009262:	c7e1                	beqz	a5,1c00932a <__divdf3+0x10c>
1c009264:	020f8e63          	beqz	t6,1c0092a0 <__divdf3+0x82>
1c009268:	100f9733          	p.fl1	a4,t6
1c00926c:	47fd                	li	a5,31
1c00926e:	40e78733          	sub	a4,a5,a4
1c009272:	ff570e13          	addi	t3,a4,-11 # fff5 <__l1_heap_size+0x411d>
1c009276:	47f1                	li	a5,28
1c009278:	03c7cc63          	blt	a5,t3,1c0092b0 <__divdf3+0x92>
1c00927c:	48f5                	li	a7,29
1c00927e:	ff870813          	addi	a6,a4,-8
1c009282:	41c888b3          	sub	a7,a7,t3
1c009286:	010f9fb3          	sll	t6,t6,a6
1c00928a:	011558b3          	srl	a7,a0,a7
1c00928e:	01f8efb3          	or	t6,a7,t6
1c009292:	01051833          	sll	a6,a0,a6
1c009296:	c0d00e13          	li	t3,-1011
1c00929a:	40ee0eb3          	sub	t4,t3,a4
1c00929e:	bf6d                	j	1c009258 <__divdf3+0x3a>
1c0092a0:	10051eb3          	p.fl1	t4,a0
1c0092a4:	47fd                	li	a5,31
1c0092a6:	41d78eb3          	sub	t4,a5,t4
1c0092aa:	020e8713          	addi	a4,t4,32
1c0092ae:	b7d1                	j	1c009272 <__divdf3+0x54>
1c0092b0:	fd870f93          	addi	t6,a4,-40
1c0092b4:	01f51fb3          	sll	t6,a0,t6
1c0092b8:	4801                	li	a6,0
1c0092ba:	bff1                	j	1c009296 <__divdf3+0x78>
1c0092bc:	882a                	mv	a6,a0
1c0092be:	00afe533          	or	a0,t6,a0
1c0092c2:	c92d                	beqz	a0,1c009334 <__divdf3+0x116>
1c0092c4:	00cf9793          	slli	a5,t6,0xc
1c0092c8:	7ff00e93          	li	t4,2047
1c0092cc:	428d                	li	t0,3
1c0092ce:	48c1                	li	a7,16
1c0092d0:	f807c5e3          	bltz	a5,1c00925a <__divdf3+0x3c>
1c0092d4:	d5469e33          	p.extractu	t3,a3,10,20
1c0092d8:	e6069733          	p.extractu	a4,a3,19,0
1c0092dc:	87b2                	mv	a5,a2
1c0092de:	82fd                	srli	a3,a3,0x1f
1c0092e0:	060e0063          	beqz	t3,1c009340 <__divdf3+0x122>
1c0092e4:	7ff00513          	li	a0,2047
1c0092e8:	0aae0963          	beq	t3,a0,1c00939a <__divdf3+0x17c>
1c0092ec:	070e                	slli	a4,a4,0x3
1c0092ee:	01d65793          	srli	a5,a2,0x1d
1c0092f2:	c1774733          	p.bset	a4,a4,0,23
1c0092f6:	8f5d                	or	a4,a4,a5
1c0092f8:	00361793          	slli	a5,a2,0x3
1c0092fc:	c01e0613          	addi	a2,t3,-1023
1c009300:	4f01                	li	t5,0
1c009302:	40ce8e33          	sub	t3,t4,a2
1c009306:	00229613          	slli	a2,t0,0x2
1c00930a:	01e66633          	or	a2,a2,t5
1c00930e:	167d                	addi	a2,a2,-1
1c009310:	4eb9                	li	t4,14
1c009312:	00d5c533          	xor	a0,a1,a3
1c009316:	0aceec63          	bltu	t4,a2,1c0093ce <__divdf3+0x1b0>
1c00931a:	1c001eb7          	lui	t4,0x1c001
1c00931e:	060a                	slli	a2,a2,0x2
1c009320:	868e8e93          	addi	t4,t4,-1944 # 1c000868 <__DTOR_END__>
1c009324:	20cef603          	p.lw	a2,a2(t4)
1c009328:	8602                	jr	a2
1c00932a:	4f81                	li	t6,0
1c00932c:	4801                	li	a6,0
1c00932e:	4e81                	li	t4,0
1c009330:	4285                	li	t0,1
1c009332:	b725                	j	1c00925a <__divdf3+0x3c>
1c009334:	4f81                	li	t6,0
1c009336:	4801                	li	a6,0
1c009338:	7ff00e93          	li	t4,2047
1c00933c:	4289                	li	t0,2
1c00933e:	bf31                	j	1c00925a <__divdf3+0x3c>
1c009340:	00c767b3          	or	a5,a4,a2
1c009344:	c7b5                	beqz	a5,1c0093b0 <__divdf3+0x192>
1c009346:	cf05                	beqz	a4,1c00937e <__divdf3+0x160>
1c009348:	10071e33          	p.fl1	t3,a4
1c00934c:	47fd                	li	a5,31
1c00934e:	41c78e33          	sub	t3,a5,t3
1c009352:	ff5e0f13          	addi	t5,t3,-11
1c009356:	47f1                	li	a5,28
1c009358:	03e7cb63          	blt	a5,t5,1c00938e <__divdf3+0x170>
1c00935c:	4575                	li	a0,29
1c00935e:	ff8e0793          	addi	a5,t3,-8
1c009362:	41e50533          	sub	a0,a0,t5
1c009366:	00f71733          	sll	a4,a4,a5
1c00936a:	00a65533          	srl	a0,a2,a0
1c00936e:	8f49                	or	a4,a4,a0
1c009370:	00f617b3          	sll	a5,a2,a5
1c009374:	c0d00613          	li	a2,-1011
1c009378:	41c60633          	sub	a2,a2,t3
1c00937c:	b751                	j	1c009300 <__divdf3+0xe2>
1c00937e:	10061e33          	p.fl1	t3,a2
1c009382:	47fd                	li	a5,31
1c009384:	41c78e33          	sub	t3,a5,t3
1c009388:	020e0e13          	addi	t3,t3,32
1c00938c:	b7d9                	j	1c009352 <__divdf3+0x134>
1c00938e:	fd8e0713          	addi	a4,t3,-40
1c009392:	00e61733          	sll	a4,a2,a4
1c009396:	4781                	li	a5,0
1c009398:	bff1                	j	1c009374 <__divdf3+0x156>
1c00939a:	8e59                	or	a2,a2,a4
1c00939c:	ce19                	beqz	a2,1c0093ba <__divdf3+0x19c>
1c00939e:	00c71613          	slli	a2,a4,0xc
1c0093a2:	02064263          	bltz	a2,1c0093c6 <__divdf3+0x1a8>
1c0093a6:	7ff00613          	li	a2,2047
1c0093aa:	4f0d                	li	t5,3
1c0093ac:	48c1                	li	a7,16
1c0093ae:	bf91                	j	1c009302 <__divdf3+0xe4>
1c0093b0:	4701                	li	a4,0
1c0093b2:	4781                	li	a5,0
1c0093b4:	4601                	li	a2,0
1c0093b6:	4f05                	li	t5,1
1c0093b8:	b7a9                	j	1c009302 <__divdf3+0xe4>
1c0093ba:	4701                	li	a4,0
1c0093bc:	4781                	li	a5,0
1c0093be:	7ff00613          	li	a2,2047
1c0093c2:	4f09                	li	t5,2
1c0093c4:	bf3d                	j	1c009302 <__divdf3+0xe4>
1c0093c6:	7ff00613          	li	a2,2047
1c0093ca:	4f0d                	li	t5,3
1c0093cc:	bf1d                	j	1c009302 <__divdf3+0xe4>
1c0093ce:	01f76663          	bltu	a4,t6,1c0093da <__divdf3+0x1bc>
1c0093d2:	24ef9963          	bne	t6,a4,1c009624 <__divdf3+0x406>
1c0093d6:	24f86763          	bltu	a6,a5,1c009624 <__divdf3+0x406>
1c0093da:	01ff9613          	slli	a2,t6,0x1f
1c0093de:	00185693          	srli	a3,a6,0x1
1c0093e2:	01f81393          	slli	t2,a6,0x1f
1c0093e6:	001fdf93          	srli	t6,t6,0x1
1c0093ea:	00d66833          	or	a6,a2,a3
1c0093ee:	0722                	slli	a4,a4,0x8
1c0093f0:	0187d693          	srli	a3,a5,0x18
1c0093f4:	8ed9                	or	a3,a3,a4
1c0093f6:	0106df13          	srli	t5,a3,0x10
1c0093fa:	03efd2b3          	divu	t0,t6,t5
1c0093fe:	1006deb3          	p.exthz	t4,a3
1c009402:	00879613          	slli	a2,a5,0x8
1c009406:	01085793          	srli	a5,a6,0x10
1c00940a:	03efffb3          	remu	t6,t6,t5
1c00940e:	8716                	mv	a4,t0
1c009410:	025e85b3          	mul	a1,t4,t0
1c009414:	0fc2                	slli	t6,t6,0x10
1c009416:	01f7e7b3          	or	a5,a5,t6
1c00941a:	00b7fc63          	bleu	a1,a5,1c009432 <__divdf3+0x214>
1c00941e:	97b6                	add	a5,a5,a3
1c009420:	fff28713          	addi	a4,t0,-1
1c009424:	00d7e763          	bltu	a5,a3,1c009432 <__divdf3+0x214>
1c009428:	00b7f563          	bleu	a1,a5,1c009432 <__divdf3+0x214>
1c00942c:	ffe28713          	addi	a4,t0,-2
1c009430:	97b6                	add	a5,a5,a3
1c009432:	8f8d                	sub	a5,a5,a1
1c009434:	03e7d2b3          	divu	t0,a5,t5
1c009438:	03e7f7b3          	remu	a5,a5,t5
1c00943c:	8596                	mv	a1,t0
1c00943e:	025e8fb3          	mul	t6,t4,t0
1c009442:	df07a833          	p.insert	a6,a5,15,16
1c009446:	01f87c63          	bleu	t6,a6,1c00945e <__divdf3+0x240>
1c00944a:	9836                	add	a6,a6,a3
1c00944c:	fff28593          	addi	a1,t0,-1
1c009450:	00d86763          	bltu	a6,a3,1c00945e <__divdf3+0x240>
1c009454:	01f87563          	bleu	t6,a6,1c00945e <__divdf3+0x240>
1c009458:	ffe28593          	addi	a1,t0,-2
1c00945c:	9836                	add	a6,a6,a3
1c00945e:	01071793          	slli	a5,a4,0x10
1c009462:	64c1                	lui	s1,0x10
1c009464:	8fcd                	or	a5,a5,a1
1c009466:	41f80833          	sub	a6,a6,t6
1c00946a:	fff48f93          	addi	t6,s1,-1 # ffff <__l1_heap_size+0x4127>
1c00946e:	01f7f733          	and	a4,a5,t6
1c009472:	0107d413          	srli	s0,a5,0x10
1c009476:	01f67fb3          	and	t6,a2,t6
1c00947a:	03f405b3          	mul	a1,s0,t6
1c00947e:	01065293          	srli	t0,a2,0x10
1c009482:	03f70933          	mul	s2,a4,t6
1c009486:	89ae                	mv	s3,a1
1c009488:	42e289b3          	p.mac	s3,t0,a4
1c00948c:	01095713          	srli	a4,s2,0x10
1c009490:	974e                	add	a4,a4,s3
1c009492:	02540433          	mul	s0,s0,t0
1c009496:	00b77363          	bleu	a1,a4,1c00949c <__divdf3+0x27e>
1c00949a:	9426                	add	s0,s0,s1
1c00949c:	64c1                	lui	s1,0x10
1c00949e:	01075593          	srli	a1,a4,0x10
1c0094a2:	14fd                	addi	s1,s1,-1
1c0094a4:	942e                	add	s0,s0,a1
1c0094a6:	009775b3          	and	a1,a4,s1
1c0094aa:	05c2                	slli	a1,a1,0x10
1c0094ac:	00997733          	and	a4,s2,s1
1c0094b0:	95ba                	add	a1,a1,a4
1c0094b2:	00886763          	bltu	a6,s0,1c0094c0 <__divdf3+0x2a2>
1c0094b6:	873e                	mv	a4,a5
1c0094b8:	02881e63          	bne	a6,s0,1c0094f4 <__divdf3+0x2d6>
1c0094bc:	02b3fc63          	bleu	a1,t2,1c0094f4 <__divdf3+0x2d6>
1c0094c0:	93b2                	add	t2,t2,a2
1c0094c2:	00c3b4b3          	sltu	s1,t2,a2
1c0094c6:	94b6                	add	s1,s1,a3
1c0094c8:	9826                	add	a6,a6,s1
1c0094ca:	fff78713          	addi	a4,a5,-1 # 3fffff <__l1_heap_size+0x3f4127>
1c0094ce:	0106e663          	bltu	a3,a6,1c0094da <__divdf3+0x2bc>
1c0094d2:	03069163          	bne	a3,a6,1c0094f4 <__divdf3+0x2d6>
1c0094d6:	00c3ef63          	bltu	t2,a2,1c0094f4 <__divdf3+0x2d6>
1c0094da:	00886663          	bltu	a6,s0,1c0094e6 <__divdf3+0x2c8>
1c0094de:	01041b63          	bne	s0,a6,1c0094f4 <__divdf3+0x2d6>
1c0094e2:	00b3f963          	bleu	a1,t2,1c0094f4 <__divdf3+0x2d6>
1c0094e6:	93b2                	add	t2,t2,a2
1c0094e8:	ffe78713          	addi	a4,a5,-2
1c0094ec:	00c3b7b3          	sltu	a5,t2,a2
1c0094f0:	97b6                	add	a5,a5,a3
1c0094f2:	983e                	add	a6,a6,a5
1c0094f4:	40b385b3          	sub	a1,t2,a1
1c0094f8:	00b3b7b3          	sltu	a5,t2,a1
1c0094fc:	40880833          	sub	a6,a6,s0
1c009500:	40f80833          	sub	a6,a6,a5
1c009504:	57fd                	li	a5,-1
1c009506:	0f068563          	beq	a3,a6,1c0095f0 <__divdf3+0x3d2>
1c00950a:	03e85433          	divu	s0,a6,t5
1c00950e:	0105d793          	srli	a5,a1,0x10
1c009512:	03e87833          	remu	a6,a6,t5
1c009516:	028e83b3          	mul	t2,t4,s0
1c00951a:	0842                	slli	a6,a6,0x10
1c00951c:	0107e833          	or	a6,a5,a6
1c009520:	87a2                	mv	a5,s0
1c009522:	00787c63          	bleu	t2,a6,1c00953a <__divdf3+0x31c>
1c009526:	9836                	add	a6,a6,a3
1c009528:	fff40793          	addi	a5,s0,-1
1c00952c:	00d86763          	bltu	a6,a3,1c00953a <__divdf3+0x31c>
1c009530:	00787563          	bleu	t2,a6,1c00953a <__divdf3+0x31c>
1c009534:	ffe40793          	addi	a5,s0,-2
1c009538:	9836                	add	a6,a6,a3
1c00953a:	40780833          	sub	a6,a6,t2
1c00953e:	03e853b3          	divu	t2,a6,t5
1c009542:	03e87833          	remu	a6,a6,t5
1c009546:	027e8eb3          	mul	t4,t4,t2
1c00954a:	df0825b3          	p.insert	a1,a6,15,16
1c00954e:	881e                	mv	a6,t2
1c009550:	01d5fc63          	bleu	t4,a1,1c009568 <__divdf3+0x34a>
1c009554:	95b6                	add	a1,a1,a3
1c009556:	fff38813          	addi	a6,t2,-1
1c00955a:	00d5e763          	bltu	a1,a3,1c009568 <__divdf3+0x34a>
1c00955e:	01d5f563          	bleu	t4,a1,1c009568 <__divdf3+0x34a>
1c009562:	ffe38813          	addi	a6,t2,-2
1c009566:	95b6                	add	a1,a1,a3
1c009568:	07c2                	slli	a5,a5,0x10
1c00956a:	0107e833          	or	a6,a5,a6
1c00956e:	100857b3          	p.exthz	a5,a6
1c009572:	01085f13          	srli	t5,a6,0x10
1c009576:	02ff8433          	mul	s0,t6,a5
1c00957a:	41d58eb3          	sub	t4,a1,t4
1c00957e:	03ff0fb3          	mul	t6,t5,t6
1c009582:	85fe                	mv	a1,t6
1c009584:	42f285b3          	p.mac	a1,t0,a5
1c009588:	01045793          	srli	a5,s0,0x10
1c00958c:	97ae                	add	a5,a5,a1
1c00958e:	03e283b3          	mul	t2,t0,t5
1c009592:	01f7f463          	bleu	t6,a5,1c00959a <__divdf3+0x37c>
1c009596:	65c1                	lui	a1,0x10
1c009598:	93ae                	add	t2,t2,a1
1c00959a:	6fc1                	lui	t6,0x10
1c00959c:	1ffd                	addi	t6,t6,-1
1c00959e:	0107df13          	srli	t5,a5,0x10
1c0095a2:	01f7f5b3          	and	a1,a5,t6
1c0095a6:	05c2                	slli	a1,a1,0x10
1c0095a8:	01f47433          	and	s0,s0,t6
1c0095ac:	9f1e                	add	t5,t5,t2
1c0095ae:	95a2                	add	a1,a1,s0
1c0095b0:	01eee663          	bltu	t4,t5,1c0095bc <__divdf3+0x39e>
1c0095b4:	87c2                	mv	a5,a6
1c0095b6:	03ee9b63          	bne	t4,t5,1c0095ec <__divdf3+0x3ce>
1c0095ba:	c99d                	beqz	a1,1c0095f0 <__divdf3+0x3d2>
1c0095bc:	9eb6                	add	t4,t4,a3
1c0095be:	fff80793          	addi	a5,a6,-1
1c0095c2:	02dee163          	bltu	t4,a3,1c0095e4 <__divdf3+0x3c6>
1c0095c6:	01eee663          	bltu	t4,t5,1c0095d2 <__divdf3+0x3b4>
1c0095ca:	03ee9163          	bne	t4,t5,1c0095ec <__divdf3+0x3ce>
1c0095ce:	00b67d63          	bleu	a1,a2,1c0095e8 <__divdf3+0x3ca>
1c0095d2:	ffe80793          	addi	a5,a6,-2
1c0095d6:	00161813          	slli	a6,a2,0x1
1c0095da:	00c83633          	sltu	a2,a6,a2
1c0095de:	96b2                	add	a3,a3,a2
1c0095e0:	9eb6                	add	t4,t4,a3
1c0095e2:	8642                	mv	a2,a6
1c0095e4:	01ee9463          	bne	t4,t5,1c0095ec <__divdf3+0x3ce>
1c0095e8:	00c58463          	beq	a1,a2,1c0095f0 <__divdf3+0x3d2>
1c0095ec:	c007c7b3          	p.bset	a5,a5,0,0
1c0095f0:	3ffe0593          	addi	a1,t3,1023
1c0095f4:	0cb05f63          	blez	a1,1c0096d2 <__divdf3+0x4b4>
1c0095f8:	f837b6b3          	p.bclr	a3,a5,28,3
1c0095fc:	c6c1                	beqz	a3,1c009684 <__divdf3+0x466>
1c0095fe:	c008c8b3          	p.bset	a7,a7,0,0
1c009602:	08232063          	p.beqimm	t1,2,1c009682 <__divdf3+0x464>
1c009606:	06332a63          	p.beqimm	t1,3,1c00967a <__divdf3+0x45c>
1c00960a:	06031d63          	bnez	t1,1c009684 <__divdf3+0x466>
1c00960e:	f647b6b3          	p.bclr	a3,a5,27,4
1c009612:	0646a963          	p.beqimm	a3,4,1c009684 <__divdf3+0x466>
1c009616:	00478693          	addi	a3,a5,4
1c00961a:	00f6b7b3          	sltu	a5,a3,a5
1c00961e:	973e                	add	a4,a4,a5
1c009620:	87b6                	mv	a5,a3
1c009622:	a08d                	j	1c009684 <__divdf3+0x466>
1c009624:	1e7d                	addi	t3,t3,-1
1c009626:	4381                	li	t2,0
1c009628:	b3d9                	j	1c0093ee <__divdf3+0x1d0>
1c00962a:	852e                	mv	a0,a1
1c00962c:	877e                	mv	a4,t6
1c00962e:	87c2                	mv	a5,a6
1c009630:	8f16                	mv	t5,t0
1c009632:	002f2d63          	p.beqimm	t5,2,1c00964c <__divdf3+0x42e>
1c009636:	1c3f2763          	p.beqimm	t5,3,1c009804 <__divdf3+0x5e6>
1c00963a:	fa1f3be3          	p.bneimm	t5,1,1c0095f0 <__divdf3+0x3d2>
1c00963e:	4701                	li	a4,0
1c009640:	4781                	li	a5,0
1c009642:	aa45                	j	1c0097f2 <__divdf3+0x5d4>
1c009644:	8536                	mv	a0,a3
1c009646:	b7f5                	j	1c009632 <__divdf3+0x414>
1c009648:	c038c8b3          	p.bset	a7,a7,0,3
1c00964c:	4701                	li	a4,0
1c00964e:	4781                	li	a5,0
1c009650:	7ff00593          	li	a1,2047
1c009654:	4681                	li	a3,0
1c009656:	e60726b3          	p.insert	a3,a4,19,0
1c00965a:	d545a6b3          	p.insert	a3,a1,10,20
1c00965e:	c1f526b3          	p.insert	a3,a0,0,31
1c009662:	85b6                	mv	a1,a3
1c009664:	853e                	mv	a0,a5
1c009666:	00088463          	beqz	a7,1c00966e <__divdf3+0x450>
1c00966a:	0018a073          	csrs	0x1,a7
1c00966e:	4432                	lw	s0,12(sp)
1c009670:	44a2                	lw	s1,8(sp)
1c009672:	4912                	lw	s2,4(sp)
1c009674:	4982                	lw	s3,0(sp)
1c009676:	0141                	addi	sp,sp,16
1c009678:	8082                	ret
1c00967a:	e509                	bnez	a0,1c009684 <__divdf3+0x466>
1c00967c:	00878693          	addi	a3,a5,8
1c009680:	bf69                	j	1c00961a <__divdf3+0x3fc>
1c009682:	fd6d                	bnez	a0,1c00967c <__divdf3+0x45e>
1c009684:	00771693          	slli	a3,a4,0x7
1c009688:	0006d663          	bgez	a3,1c009694 <__divdf3+0x476>
1c00968c:	c1873733          	p.bclr	a4,a4,0,24
1c009690:	400e0593          	addi	a1,t3,1024
1c009694:	7fe00693          	li	a3,2046
1c009698:	00b6c963          	blt	a3,a1,1c0096aa <__divdf3+0x48c>
1c00969c:	0037d693          	srli	a3,a5,0x3
1c0096a0:	01d71793          	slli	a5,a4,0x1d
1c0096a4:	8fd5                	or	a5,a5,a3
1c0096a6:	830d                	srli	a4,a4,0x3
1c0096a8:	b775                	j	1c009654 <__divdf3+0x436>
1c0096aa:	02232263          	p.beqimm	t1,2,1c0096ce <__divdf3+0x4b0>
1c0096ae:	00332b63          	p.beqimm	t1,3,1c0096c4 <__divdf3+0x4a6>
1c0096b2:	00030a63          	beqz	t1,1c0096c6 <__divdf3+0x4a8>
1c0096b6:	57fd                	li	a5,-1
1c0096b8:	7fe00593          	li	a1,2046
1c0096bc:	0058e893          	ori	a7,a7,5
1c0096c0:	873e                	mv	a4,a5
1c0096c2:	bf49                	j	1c009654 <__divdf3+0x436>
1c0096c4:	f96d                	bnez	a0,1c0096b6 <__divdf3+0x498>
1c0096c6:	4781                	li	a5,0
1c0096c8:	7ff00593          	li	a1,2047
1c0096cc:	bfc5                	j	1c0096bc <__divdf3+0x49e>
1c0096ce:	fd65                	bnez	a0,1c0096c6 <__divdf3+0x4a8>
1c0096d0:	b7dd                	j	1c0096b6 <__divdf3+0x498>
1c0096d2:	4805                	li	a6,1
1c0096d4:	e1a9                	bnez	a1,1c009716 <__divdf3+0x4f8>
1c0096d6:	f837b633          	p.bclr	a2,a5,28,3
1c0096da:	86ba                	mv	a3,a4
1c0096dc:	ca05                	beqz	a2,1c00970c <__divdf3+0x4ee>
1c0096de:	c008c8b3          	p.bset	a7,a7,0,0
1c0096e2:	02232463          	p.beqimm	t1,2,1c00970a <__divdf3+0x4ec>
1c0096e6:	00332e63          	p.beqimm	t1,3,1c009702 <__divdf3+0x4e4>
1c0096ea:	02031163          	bnez	t1,1c00970c <__divdf3+0x4ee>
1c0096ee:	f647b633          	p.bclr	a2,a5,27,4
1c0096f2:	00462d63          	p.beqimm	a2,4,1c00970c <__divdf3+0x4ee>
1c0096f6:	ffc7b693          	sltiu	a3,a5,-4
1c0096fa:	0016c693          	xori	a3,a3,1
1c0096fe:	96ba                	add	a3,a3,a4
1c009700:	a031                	j	1c00970c <__divdf3+0x4ee>
1c009702:	e509                	bnez	a0,1c00970c <__divdf3+0x4ee>
1c009704:	ff87b693          	sltiu	a3,a5,-8
1c009708:	bfcd                	j	1c0096fa <__divdf3+0x4dc>
1c00970a:	fd6d                	bnez	a0,1c009704 <__divdf3+0x4e6>
1c00970c:	82e1                	srli	a3,a3,0x18
1c00970e:	0016c693          	xori	a3,a3,1
1c009712:	fc16b833          	p.bclr	a6,a3,30,1
1c009716:	4685                	li	a3,1
1c009718:	8e8d                	sub	a3,a3,a1
1c00971a:	03800613          	li	a2,56
1c00971e:	0ad64b63          	blt	a2,a3,1c0097d4 <__divdf3+0x5b6>
1c009722:	467d                	li	a2,31
1c009724:	04d64663          	blt	a2,a3,1c009770 <__divdf3+0x552>
1c009728:	41ee0e13          	addi	t3,t3,1054
1c00972c:	01c71633          	sll	a2,a4,t3
1c009730:	00d7d5b3          	srl	a1,a5,a3
1c009734:	01c797b3          	sll	a5,a5,t3
1c009738:	8e4d                	or	a2,a2,a1
1c00973a:	00f037b3          	snez	a5,a5
1c00973e:	8fd1                	or	a5,a5,a2
1c009740:	00d75733          	srl	a4,a4,a3
1c009744:	f837b6b3          	p.bclr	a3,a5,28,3
1c009748:	cea1                	beqz	a3,1c0097a0 <__divdf3+0x582>
1c00974a:	c008c8b3          	p.bset	a7,a7,0,0
1c00974e:	04232863          	p.beqimm	t1,2,1c00979e <__divdf3+0x580>
1c009752:	04332263          	p.beqimm	t1,3,1c009796 <__divdf3+0x578>
1c009756:	04031563          	bnez	t1,1c0097a0 <__divdf3+0x582>
1c00975a:	f647b6b3          	p.bclr	a3,a5,27,4
1c00975e:	0446a163          	p.beqimm	a3,4,1c0097a0 <__divdf3+0x582>
1c009762:	00478693          	addi	a3,a5,4
1c009766:	00f6b7b3          	sltu	a5,a3,a5
1c00976a:	973e                	add	a4,a4,a5
1c00976c:	87b6                	mv	a5,a3
1c00976e:	a80d                	j	1c0097a0 <__divdf3+0x582>
1c009770:	5605                	li	a2,-31
1c009772:	8e0d                	sub	a2,a2,a1
1c009774:	02000e93          	li	t4,32
1c009778:	00c75633          	srl	a2,a4,a2
1c00977c:	4581                	li	a1,0
1c00977e:	01d68663          	beq	a3,t4,1c00978a <__divdf3+0x56c>
1c009782:	43ee0e13          	addi	t3,t3,1086
1c009786:	01c715b3          	sll	a1,a4,t3
1c00978a:	8fcd                	or	a5,a5,a1
1c00978c:	00f037b3          	snez	a5,a5
1c009790:	8fd1                	or	a5,a5,a2
1c009792:	4701                	li	a4,0
1c009794:	bf45                	j	1c009744 <__divdf3+0x526>
1c009796:	e509                	bnez	a0,1c0097a0 <__divdf3+0x582>
1c009798:	00878693          	addi	a3,a5,8
1c00979c:	b7e9                	j	1c009766 <__divdf3+0x548>
1c00979e:	fd6d                	bnez	a0,1c009798 <__divdf3+0x57a>
1c0097a0:	00871613          	slli	a2,a4,0x8
1c0097a4:	02065063          	bgez	a2,1c0097c4 <__divdf3+0x5a6>
1c0097a8:	c008c8b3          	p.bset	a7,a7,0,0
1c0097ac:	4701                	li	a4,0
1c0097ae:	4781                	li	a5,0
1c0097b0:	4585                	li	a1,1
1c0097b2:	ea0801e3          	beqz	a6,1c009654 <__divdf3+0x436>
1c0097b6:	fc18b6b3          	p.bclr	a3,a7,30,1
1c0097ba:	e8068de3          	beqz	a3,1c009654 <__divdf3+0x436>
1c0097be:	c018c8b3          	p.bset	a7,a7,0,1
1c0097c2:	bd49                	j	1c009654 <__divdf3+0x436>
1c0097c4:	0037d693          	srli	a3,a5,0x3
1c0097c8:	01d71793          	slli	a5,a4,0x1d
1c0097cc:	8fd5                	or	a5,a5,a3
1c0097ce:	830d                	srli	a4,a4,0x3
1c0097d0:	4581                	li	a1,0
1c0097d2:	b7c5                	j	1c0097b2 <__divdf3+0x594>
1c0097d4:	8fd9                	or	a5,a5,a4
1c0097d6:	cb99                	beqz	a5,1c0097ec <__divdf3+0x5ce>
1c0097d8:	c008c8b3          	p.bset	a7,a7,0,0
1c0097dc:	02232163          	p.beqimm	t1,2,1c0097fe <__divdf3+0x5e0>
1c0097e0:	00332b63          	p.beqimm	t1,3,1c0097f6 <__divdf3+0x5d8>
1c0097e4:	4795                	li	a5,5
1c0097e6:	00031a63          	bnez	t1,1c0097fa <__divdf3+0x5dc>
1c0097ea:	838d                	srli	a5,a5,0x3
1c0097ec:	c018c8b3          	p.bset	a7,a7,0,1
1c0097f0:	4701                	li	a4,0
1c0097f2:	4581                	li	a1,0
1c0097f4:	b585                	j	1c009654 <__divdf3+0x436>
1c0097f6:	47a5                	li	a5,9
1c0097f8:	d96d                	beqz	a0,1c0097ea <__divdf3+0x5cc>
1c0097fa:	4785                	li	a5,1
1c0097fc:	b7fd                	j	1c0097ea <__divdf3+0x5cc>
1c0097fe:	47a5                	li	a5,9
1c009800:	f56d                	bnez	a0,1c0097ea <__divdf3+0x5cc>
1c009802:	bfe5                	j	1c0097fa <__divdf3+0x5dc>
1c009804:	00080737          	lui	a4,0x80
1c009808:	4781                	li	a5,0
1c00980a:	7ff00593          	li	a1,2047
1c00980e:	4501                	li	a0,0
1c009810:	b591                	j	1c009654 <__divdf3+0x436>
1c009812:	00080737          	lui	a4,0x80
1c009816:	4781                	li	a5,0
1c009818:	7ff00593          	li	a1,2047
1c00981c:	4501                	li	a0,0
1c00981e:	48c1                	li	a7,16
1c009820:	bd15                	j	1c009654 <__divdf3+0x436>

1c009822 <__eqdf2>:
1c009822:	002027f3          	csrr	a5,0x2
1c009826:	7ff00313          	li	t1,2047
1c00982a:	d5459833          	p.extractu	a6,a1,10,20
1c00982e:	e60597b3          	p.extractu	a5,a1,19,0
1c009832:	e6069733          	p.extractu	a4,a3,19,0
1c009836:	d54698b3          	p.extractu	a7,a3,10,20
1c00983a:	8eaa                	mv	t4,a0
1c00983c:	81fd                	srli	a1,a1,0x1f
1c00983e:	8e32                	mv	t3,a2
1c009840:	82fd                	srli	a3,a3,0x1f
1c009842:	00681963          	bne	a6,t1,1c009854 <__eqdf2+0x32>
1c009846:	00a7e333          	or	t1,a5,a0
1c00984a:	00031f63          	bnez	t1,1c009868 <__eqdf2+0x46>
1c00984e:	05089e63          	bne	a7,a6,1c0098aa <__eqdf2+0x88>
1c009852:	a019                	j	1c009858 <__eqdf2+0x36>
1c009854:	02689a63          	bne	a7,t1,1c009888 <__eqdf2+0x66>
1c009858:	00c76333          	or	t1,a4,a2
1c00985c:	02030663          	beqz	t1,1c009888 <__eqdf2+0x66>
1c009860:	7ff00693          	li	a3,2047
1c009864:	00d81b63          	bne	a6,a3,1c00987a <__eqdf2+0x58>
1c009868:	8d5d                	or	a0,a0,a5
1c00986a:	c119                	beqz	a0,1c009870 <__eqdf2+0x4e>
1c00986c:	83cd                	srli	a5,a5,0x13
1c00986e:	cf85                	beqz	a5,1c0098a6 <__eqdf2+0x84>
1c009870:	7ff00793          	li	a5,2047
1c009874:	4505                	li	a0,1
1c009876:	02f89b63          	bne	a7,a5,1c0098ac <__eqdf2+0x8a>
1c00987a:	00c767b3          	or	a5,a4,a2
1c00987e:	4505                	li	a0,1
1c009880:	c795                	beqz	a5,1c0098ac <__eqdf2+0x8a>
1c009882:	834d                	srli	a4,a4,0x13
1c009884:	c30d                	beqz	a4,1c0098a6 <__eqdf2+0x84>
1c009886:	8082                	ret
1c009888:	4505                	li	a0,1
1c00988a:	03181163          	bne	a6,a7,1c0098ac <__eqdf2+0x8a>
1c00988e:	00e79f63          	bne	a5,a4,1c0098ac <__eqdf2+0x8a>
1c009892:	01de1d63          	bne	t3,t4,1c0098ac <__eqdf2+0x8a>
1c009896:	00d58c63          	beq	a1,a3,1c0098ae <__eqdf2+0x8c>
1c00989a:	00081963          	bnez	a6,1c0098ac <__eqdf2+0x8a>
1c00989e:	8fd1                	or	a5,a5,a2
1c0098a0:	00f03533          	snez	a0,a5
1c0098a4:	8082                	ret
1c0098a6:	00186073          	csrsi	0x1,16
1c0098aa:	4505                	li	a0,1
1c0098ac:	8082                	ret
1c0098ae:	4501                	li	a0,0
1c0098b0:	8082                	ret

1c0098b2 <__ledf2>:
1c0098b2:	002027f3          	csrr	a5,0x2
1c0098b6:	7ff00e93          	li	t4,2047
1c0098ba:	d5459733          	p.extractu	a4,a1,10,20
1c0098be:	e60597b3          	p.extractu	a5,a1,19,0
1c0098c2:	e60698b3          	p.extractu	a7,a3,19,0
1c0098c6:	d5469833          	p.extractu	a6,a3,10,20
1c0098ca:	832a                	mv	t1,a0
1c0098cc:	81fd                	srli	a1,a1,0x1f
1c0098ce:	8e32                	mv	t3,a2
1c0098d0:	82fd                	srli	a3,a3,0x1f
1c0098d2:	01d71a63          	bne	a4,t4,1c0098e6 <__ledf2+0x34>
1c0098d6:	00a7eeb3          	or	t4,a5,a0
1c0098da:	060e8a63          	beqz	t4,1c00994e <__ledf2+0x9c>
1c0098de:	00186073          	csrsi	0x1,16
1c0098e2:	4509                	li	a0,2
1c0098e4:	8082                	ret
1c0098e6:	01d81a63          	bne	a6,t4,1c0098fa <__ledf2+0x48>
1c0098ea:	00c8e633          	or	a2,a7,a2
1c0098ee:	fa65                	bnez	a2,1c0098de <__ledf2+0x2c>
1c0098f0:	ef19                	bnez	a4,1c00990e <__ledf2+0x5c>
1c0098f2:	8d5d                	or	a0,a0,a5
1c0098f4:	00153513          	seqz	a0,a0
1c0098f8:	a811                	j	1c00990c <__ledf2+0x5a>
1c0098fa:	ef21                	bnez	a4,1c009952 <__ledf2+0xa0>
1c0098fc:	8d5d                	or	a0,a0,a5
1c0098fe:	00153513          	seqz	a0,a0
1c009902:	00081563          	bnez	a6,1c00990c <__ledf2+0x5a>
1c009906:	00c8e633          	or	a2,a7,a2
1c00990a:	c221                	beqz	a2,1c00994a <__ledf2+0x98>
1c00990c:	e901                	bnez	a0,1c00991c <__ledf2+0x6a>
1c00990e:	00d59463          	bne	a1,a3,1c009916 <__ledf2+0x64>
1c009912:	00e85863          	ble	a4,a6,1c009922 <__ledf2+0x70>
1c009916:	4505                	li	a0,1
1c009918:	e199                	bnez	a1,1c00991e <__ledf2+0x6c>
1c00991a:	8082                	ret
1c00991c:	fefd                	bnez	a3,1c00991a <__ledf2+0x68>
1c00991e:	557d                	li	a0,-1
1c009920:	8082                	ret
1c009922:	01075663          	ble	a6,a4,1c00992e <__ledf2+0x7c>
1c009926:	557d                	li	a0,-1
1c009928:	d9ed                	beqz	a1,1c00991a <__ledf2+0x68>
1c00992a:	4505                	li	a0,1
1c00992c:	8082                	ret
1c00992e:	fef8e4e3          	bltu	a7,a5,1c009916 <__ledf2+0x64>
1c009932:	01179863          	bne	a5,a7,1c009942 <__ledf2+0x90>
1c009936:	fe6e60e3          	bltu	t3,t1,1c009916 <__ledf2+0x64>
1c00993a:	4501                	li	a0,0
1c00993c:	fdc37fe3          	bleu	t3,t1,1c00991a <__ledf2+0x68>
1c009940:	b7dd                	j	1c009926 <__ledf2+0x74>
1c009942:	ff17e2e3          	bltu	a5,a7,1c009926 <__ledf2+0x74>
1c009946:	4501                	li	a0,0
1c009948:	8082                	ret
1c00994a:	fd75                	bnez	a0,1c009946 <__ledf2+0x94>
1c00994c:	b7e9                	j	1c009916 <__ledf2+0x64>
1c00994e:	f8e80ee3          	beq	a6,a4,1c0098ea <__ledf2+0x38>
1c009952:	4501                	li	a0,0
1c009954:	fa0809e3          	beqz	a6,1c009906 <__ledf2+0x54>
1c009958:	bf5d                	j	1c00990e <__ledf2+0x5c>

1c00995a <__muldf3>:
1c00995a:	1101                	addi	sp,sp,-32
1c00995c:	ce22                	sw	s0,28(sp)
1c00995e:	cc26                	sw	s1,24(sp)
1c009960:	ca4a                	sw	s2,20(sp)
1c009962:	c84e                	sw	s3,16(sp)
1c009964:	c652                	sw	s4,12(sp)
1c009966:	c456                	sw	s5,8(sp)
1c009968:	c25a                	sw	s6,4(sp)
1c00996a:	00202373          	csrr	t1,0x2
1c00996e:	d5459e33          	p.extractu	t3,a1,10,20
1c009972:	e60598b3          	p.extractu	a7,a1,19,0
1c009976:	81fd                	srli	a1,a1,0x1f
1c009978:	020e0463          	beqz	t3,1c0099a0 <__muldf3+0x46>
1c00997c:	7ff00793          	li	a5,2047
1c009980:	06fe0f63          	beq	t3,a5,1c0099fe <__muldf3+0xa4>
1c009984:	088e                	slli	a7,a7,0x3
1c009986:	c178c8b3          	p.bset	a7,a7,0,23
1c00998a:	01d55793          	srli	a5,a0,0x1d
1c00998e:	0117e8b3          	or	a7,a5,a7
1c009992:	00351f93          	slli	t6,a0,0x3
1c009996:	c01e0e13          	addi	t3,t3,-1023
1c00999a:	4281                	li	t0,0
1c00999c:	4801                	li	a6,0
1c00999e:	a8a5                	j	1c009a16 <__muldf3+0xbc>
1c0099a0:	00a8e7b3          	or	a5,a7,a0
1c0099a4:	c7e9                	beqz	a5,1c009a6e <__muldf3+0x114>
1c0099a6:	02088e63          	beqz	a7,1c0099e2 <__muldf3+0x88>
1c0099aa:	100897b3          	p.fl1	a5,a7
1c0099ae:	477d                	li	a4,31
1c0099b0:	40f707b3          	sub	a5,a4,a5
1c0099b4:	ff578813          	addi	a6,a5,-11
1c0099b8:	4771                	li	a4,28
1c0099ba:	03074c63          	blt	a4,a6,1c0099f2 <__muldf3+0x98>
1c0099be:	4775                	li	a4,29
1c0099c0:	ff878f93          	addi	t6,a5,-8
1c0099c4:	41070733          	sub	a4,a4,a6
1c0099c8:	01f898b3          	sll	a7,a7,t6
1c0099cc:	00e55733          	srl	a4,a0,a4
1c0099d0:	011768b3          	or	a7,a4,a7
1c0099d4:	01f51fb3          	sll	t6,a0,t6
1c0099d8:	c0d00e13          	li	t3,-1011
1c0099dc:	40fe0e33          	sub	t3,t3,a5
1c0099e0:	bf6d                	j	1c00999a <__muldf3+0x40>
1c0099e2:	47fd                	li	a5,31
1c0099e4:	10051e33          	p.fl1	t3,a0
1c0099e8:	41c78e33          	sub	t3,a5,t3
1c0099ec:	020e0793          	addi	a5,t3,32
1c0099f0:	b7d1                	j	1c0099b4 <__muldf3+0x5a>
1c0099f2:	fd878893          	addi	a7,a5,-40
1c0099f6:	011518b3          	sll	a7,a0,a7
1c0099fa:	4f81                	li	t6,0
1c0099fc:	bff1                	j	1c0099d8 <__muldf3+0x7e>
1c0099fe:	8faa                	mv	t6,a0
1c009a00:	00a8e533          	or	a0,a7,a0
1c009a04:	c935                	beqz	a0,1c009a78 <__muldf3+0x11e>
1c009a06:	00c89793          	slli	a5,a7,0xc
1c009a0a:	7ff00e13          	li	t3,2047
1c009a0e:	428d                	li	t0,3
1c009a10:	4841                	li	a6,16
1c009a12:	f807c5e3          	bltz	a5,1c00999c <__muldf3+0x42>
1c009a16:	d5469533          	p.extractu	a0,a3,10,20
1c009a1a:	e6069733          	p.extractu	a4,a3,19,0
1c009a1e:	87b2                	mv	a5,a2
1c009a20:	82fd                	srli	a3,a3,0x1f
1c009a22:	c12d                	beqz	a0,1c009a84 <__muldf3+0x12a>
1c009a24:	7ff00e93          	li	t4,2047
1c009a28:	0bd50b63          	beq	a0,t4,1c009ade <__muldf3+0x184>
1c009a2c:	070e                	slli	a4,a4,0x3
1c009a2e:	01d65793          	srli	a5,a2,0x1d
1c009a32:	c1774733          	p.bset	a4,a4,0,23
1c009a36:	8f5d                	or	a4,a4,a5
1c009a38:	00361793          	slli	a5,a2,0x3
1c009a3c:	c0150613          	addi	a2,a0,-1023
1c009a40:	4e81                	li	t4,0
1c009a42:	00ce0f33          	add	t5,t3,a2
1c009a46:	00229613          	slli	a2,t0,0x2
1c009a4a:	01d66633          	or	a2,a2,t4
1c009a4e:	167d                	addi	a2,a2,-1
1c009a50:	43b9                	li	t2,14
1c009a52:	00d5c533          	xor	a0,a1,a3
1c009a56:	001f0e13          	addi	t3,t5,1
1c009a5a:	0ec3e963          	bltu	t2,a2,1c009b4c <__muldf3+0x1f2>
1c009a5e:	1c001f37          	lui	t5,0x1c001
1c009a62:	060a                	slli	a2,a2,0x2
1c009a64:	8a4f0f13          	addi	t5,t5,-1884 # 1c0008a4 <__DTOR_END__+0x3c>
1c009a68:	20cf7603          	p.lw	a2,a2(t5)
1c009a6c:	8602                	jr	a2
1c009a6e:	4881                	li	a7,0
1c009a70:	4f81                	li	t6,0
1c009a72:	4e01                	li	t3,0
1c009a74:	4285                	li	t0,1
1c009a76:	b71d                	j	1c00999c <__muldf3+0x42>
1c009a78:	4881                	li	a7,0
1c009a7a:	4f81                	li	t6,0
1c009a7c:	7ff00e13          	li	t3,2047
1c009a80:	4289                	li	t0,2
1c009a82:	bf29                	j	1c00999c <__muldf3+0x42>
1c009a84:	00c767b3          	or	a5,a4,a2
1c009a88:	c7b5                	beqz	a5,1c009af4 <__muldf3+0x19a>
1c009a8a:	cf05                	beqz	a4,1c009ac2 <__muldf3+0x168>
1c009a8c:	10071533          	p.fl1	a0,a4
1c009a90:	47fd                	li	a5,31
1c009a92:	40a78533          	sub	a0,a5,a0
1c009a96:	ff550f13          	addi	t5,a0,-11
1c009a9a:	47f1                	li	a5,28
1c009a9c:	03e7cb63          	blt	a5,t5,1c009ad2 <__muldf3+0x178>
1c009aa0:	4ef5                	li	t4,29
1c009aa2:	ff850793          	addi	a5,a0,-8
1c009aa6:	41ee8eb3          	sub	t4,t4,t5
1c009aaa:	00f71733          	sll	a4,a4,a5
1c009aae:	01d65eb3          	srl	t4,a2,t4
1c009ab2:	00eee733          	or	a4,t4,a4
1c009ab6:	00f617b3          	sll	a5,a2,a5
1c009aba:	c0d00613          	li	a2,-1011
1c009abe:	8e09                	sub	a2,a2,a0
1c009ac0:	b741                	j	1c009a40 <__muldf3+0xe6>
1c009ac2:	10061533          	p.fl1	a0,a2
1c009ac6:	47fd                	li	a5,31
1c009ac8:	40a78533          	sub	a0,a5,a0
1c009acc:	02050513          	addi	a0,a0,32
1c009ad0:	b7d9                	j	1c009a96 <__muldf3+0x13c>
1c009ad2:	fd850713          	addi	a4,a0,-40
1c009ad6:	00e61733          	sll	a4,a2,a4
1c009ada:	4781                	li	a5,0
1c009adc:	bff9                	j	1c009aba <__muldf3+0x160>
1c009ade:	8e59                	or	a2,a2,a4
1c009ae0:	ce19                	beqz	a2,1c009afe <__muldf3+0x1a4>
1c009ae2:	00c71613          	slli	a2,a4,0xc
1c009ae6:	02064263          	bltz	a2,1c009b0a <__muldf3+0x1b0>
1c009aea:	7ff00613          	li	a2,2047
1c009aee:	4e8d                	li	t4,3
1c009af0:	4841                	li	a6,16
1c009af2:	bf81                	j	1c009a42 <__muldf3+0xe8>
1c009af4:	4701                	li	a4,0
1c009af6:	4781                	li	a5,0
1c009af8:	4601                	li	a2,0
1c009afa:	4e85                	li	t4,1
1c009afc:	b799                	j	1c009a42 <__muldf3+0xe8>
1c009afe:	4701                	li	a4,0
1c009b00:	4781                	li	a5,0
1c009b02:	7ff00613          	li	a2,2047
1c009b06:	4e89                	li	t4,2
1c009b08:	bf2d                	j	1c009a42 <__muldf3+0xe8>
1c009b0a:	7ff00613          	li	a2,2047
1c009b0e:	4e8d                	li	t4,3
1c009b10:	bf0d                	j	1c009a42 <__muldf3+0xe8>
1c009b12:	00080737          	lui	a4,0x80
1c009b16:	4781                	li	a5,0
1c009b18:	7ff00893          	li	a7,2047
1c009b1c:	4501                	li	a0,0
1c009b1e:	4841                	li	a6,16
1c009b20:	4681                	li	a3,0
1c009b22:	e60726b3          	p.insert	a3,a4,19,0
1c009b26:	d548a6b3          	p.insert	a3,a7,10,20
1c009b2a:	c1f526b3          	p.insert	a3,a0,0,31
1c009b2e:	85b6                	mv	a1,a3
1c009b30:	853e                	mv	a0,a5
1c009b32:	00080463          	beqz	a6,1c009b3a <__muldf3+0x1e0>
1c009b36:	00182073          	csrs	0x1,a6
1c009b3a:	4472                	lw	s0,28(sp)
1c009b3c:	44e2                	lw	s1,24(sp)
1c009b3e:	4952                	lw	s2,20(sp)
1c009b40:	49c2                	lw	s3,16(sp)
1c009b42:	4a32                	lw	s4,12(sp)
1c009b44:	4aa2                	lw	s5,8(sp)
1c009b46:	4b12                	lw	s6,4(sp)
1c009b48:	6105                	addi	sp,sp,32
1c009b4a:	8082                	ret
1c009b4c:	6641                	lui	a2,0x10
1c009b4e:	fff60293          	addi	t0,a2,-1 # ffff <__l1_heap_size+0x4127>
1c009b52:	010fd693          	srli	a3,t6,0x10
1c009b56:	0057f4b3          	and	s1,a5,t0
1c009b5a:	02968433          	mul	s0,a3,s1
1c009b5e:	005fffb3          	and	t6,t6,t0
1c009b62:	0107d993          	srli	s3,a5,0x10
1c009b66:	8ea2                	mv	t4,s0
1c009b68:	029f87b3          	mul	a5,t6,s1
1c009b6c:	43f98eb3          	p.mac	t4,s3,t6
1c009b70:	0107d593          	srli	a1,a5,0x10
1c009b74:	95f6                	add	a1,a1,t4
1c009b76:	033683b3          	mul	t2,a3,s3
1c009b7a:	0085f363          	bleu	s0,a1,1c009b80 <__muldf3+0x226>
1c009b7e:	93b2                	add	t2,t2,a2
1c009b80:	0055feb3          	and	t4,a1,t0
1c009b84:	0057f7b3          	and	a5,a5,t0
1c009b88:	0ec2                	slli	t4,t4,0x10
1c009b8a:	9ebe                	add	t4,t4,a5
1c009b8c:	005777b3          	and	a5,a4,t0
1c009b90:	01075913          	srli	s2,a4,0x10
1c009b94:	0105da13          	srli	s4,a1,0x10
1c009b98:	02f68633          	mul	a2,a3,a5
1c009b9c:	85b2                	mv	a1,a2
1c009b9e:	02ff8733          	mul	a4,t6,a5
1c009ba2:	43f905b3          	p.mac	a1,s2,t6
1c009ba6:	8fae                	mv	t6,a1
1c009ba8:	01075593          	srli	a1,a4,0x10
1c009bac:	95fe                	add	a1,a1,t6
1c009bae:	032686b3          	mul	a3,a3,s2
1c009bb2:	00c5f463          	bleu	a2,a1,1c009bba <__muldf3+0x260>
1c009bb6:	6641                	lui	a2,0x10
1c009bb8:	96b2                	add	a3,a3,a2
1c009bba:	6ac1                	lui	s5,0x10
1c009bbc:	fffa8413          	addi	s0,s5,-1 # ffff <__l1_heap_size+0x4127>
1c009bc0:	0085f2b3          	and	t0,a1,s0
1c009bc4:	0105d613          	srli	a2,a1,0x10
1c009bc8:	008775b3          	and	a1,a4,s0
1c009bcc:	0108d713          	srli	a4,a7,0x10
1c009bd0:	0088f433          	and	s0,a7,s0
1c009bd4:	02940b33          	mul	s6,s0,s1
1c009bd8:	02c2                	slli	t0,t0,0x10
1c009bda:	92ae                	add	t0,t0,a1
1c009bdc:	9636                	add	a2,a2,a3
1c009bde:	9a16                	add	s4,s4,t0
1c009be0:	029704b3          	mul	s1,a4,s1
1c009be4:	010b5f93          	srli	t6,s6,0x10
1c009be8:	88a6                	mv	a7,s1
1c009bea:	428988b3          	p.mac	a7,s3,s0
1c009bee:	9fc6                	add	t6,t6,a7
1c009bf0:	02e986b3          	mul	a3,s3,a4
1c009bf4:	009ff363          	bleu	s1,t6,1c009bfa <__muldf3+0x2a0>
1c009bf8:	96d6                	add	a3,a3,s5
1c009bfa:	010fd493          	srli	s1,t6,0x10
1c009bfe:	65c1                	lui	a1,0x10
1c009c00:	94b6                	add	s1,s1,a3
1c009c02:	fff58693          	addi	a3,a1,-1 # ffff <__l1_heap_size+0x4127>
1c009c06:	00dff8b3          	and	a7,t6,a3
1c009c0a:	00db7fb3          	and	t6,s6,a3
1c009c0e:	08c2                	slli	a7,a7,0x10
1c009c10:	028786b3          	mul	a3,a5,s0
1c009c14:	98fe                	add	a7,a7,t6
1c009c16:	02f707b3          	mul	a5,a4,a5
1c009c1a:	02e90fb3          	mul	t6,s2,a4
1c009c1e:	873e                	mv	a4,a5
1c009c20:	42890733          	p.mac	a4,s2,s0
1c009c24:	0106d413          	srli	s0,a3,0x10
1c009c28:	9722                	add	a4,a4,s0
1c009c2a:	00f77363          	bleu	a5,a4,1c009c30 <__muldf3+0x2d6>
1c009c2e:	9fae                	add	t6,t6,a1
1c009c30:	67c1                	lui	a5,0x10
1c009c32:	17fd                	addi	a5,a5,-1
1c009c34:	00f775b3          	and	a1,a4,a5
1c009c38:	8efd                	and	a3,a3,a5
1c009c3a:	05c2                	slli	a1,a1,0x10
1c009c3c:	93d2                	add	t2,t2,s4
1c009c3e:	95b6                	add	a1,a1,a3
1c009c40:	00c586b3          	add	a3,a1,a2
1c009c44:	0053b2b3          	sltu	t0,t2,t0
1c009c48:	00568933          	add	s2,a3,t0
1c009c4c:	00c6b6b3          	sltu	a3,a3,a2
1c009c50:	8636                	mv	a2,a3
1c009c52:	005936b3          	sltu	a3,s2,t0
1c009c56:	93c6                	add	t2,t2,a7
1c009c58:	8ed1                	or	a3,a3,a2
1c009c5a:	0113b8b3          	sltu	a7,t2,a7
1c009c5e:	009905b3          	add	a1,s2,s1
1c009c62:	8341                	srli	a4,a4,0x10
1c009c64:	0ff6f693          	andi	a3,a3,255
1c009c68:	01158433          	add	s0,a1,a7
1c009c6c:	96ba                	add	a3,a3,a4
1c009c6e:	0095b733          	sltu	a4,a1,s1
1c009c72:	85ba                	mv	a1,a4
1c009c74:	01143733          	sltu	a4,s0,a7
1c009c78:	8f4d                	or	a4,a4,a1
1c009c7a:	0ff77713          	andi	a4,a4,255
1c009c7e:	9736                	add	a4,a4,a3
1c009c80:	977e                	add	a4,a4,t6
1c009c82:	01745793          	srli	a5,s0,0x17
1c009c86:	0726                	slli	a4,a4,0x9
1c009c88:	8f5d                	or	a4,a4,a5
1c009c8a:	00939793          	slli	a5,t2,0x9
1c009c8e:	01d7e7b3          	or	a5,a5,t4
1c009c92:	00f037b3          	snez	a5,a5
1c009c96:	0173d393          	srli	t2,t2,0x17
1c009c9a:	0077e7b3          	or	a5,a5,t2
1c009c9e:	0426                	slli	s0,s0,0x9
1c009ca0:	00771613          	slli	a2,a4,0x7
1c009ca4:	8fc1                	or	a5,a5,s0
1c009ca6:	06065963          	bgez	a2,1c009d18 <__muldf3+0x3be>
1c009caa:	0017d693          	srli	a3,a5,0x1
1c009cae:	fc17b7b3          	p.bclr	a5,a5,30,1
1c009cb2:	8fd5                	or	a5,a5,a3
1c009cb4:	01f71693          	slli	a3,a4,0x1f
1c009cb8:	8fd5                	or	a5,a5,a3
1c009cba:	8305                	srli	a4,a4,0x1
1c009cbc:	3ffe0893          	addi	a7,t3,1023
1c009cc0:	0b105a63          	blez	a7,1c009d74 <__muldf3+0x41a>
1c009cc4:	f837b6b3          	p.bclr	a3,a5,28,3
1c009cc8:	ceb9                	beqz	a3,1c009d26 <__muldf3+0x3cc>
1c009cca:	c0084833          	p.bset	a6,a6,0,0
1c009cce:	04232b63          	p.beqimm	t1,2,1c009d24 <__muldf3+0x3ca>
1c009cd2:	04332563          	p.beqimm	t1,3,1c009d1c <__muldf3+0x3c2>
1c009cd6:	04031863          	bnez	t1,1c009d26 <__muldf3+0x3cc>
1c009cda:	f647b6b3          	p.bclr	a3,a5,27,4
1c009cde:	0446a463          	p.beqimm	a3,4,1c009d26 <__muldf3+0x3cc>
1c009ce2:	00478693          	addi	a3,a5,4 # 10004 <__l1_heap_size+0x412c>
1c009ce6:	00f6b7b3          	sltu	a5,a3,a5
1c009cea:	973e                	add	a4,a4,a5
1c009cec:	87b6                	mv	a5,a3
1c009cee:	a825                	j	1c009d26 <__muldf3+0x3cc>
1c009cf0:	852e                	mv	a0,a1
1c009cf2:	8746                	mv	a4,a7
1c009cf4:	87fe                	mv	a5,t6
1c009cf6:	8e96                	mv	t4,t0
1c009cf8:	002eab63          	p.beqimm	t4,2,1c009d0e <__muldf3+0x3b4>
1c009cfc:	1a3eab63          	p.beqimm	t4,3,1c009eb2 <__muldf3+0x558>
1c009d00:	fa1ebee3          	p.bneimm	t4,1,1c009cbc <__muldf3+0x362>
1c009d04:	4701                	li	a4,0
1c009d06:	4781                	li	a5,0
1c009d08:	aa61                	j	1c009ea0 <__muldf3+0x546>
1c009d0a:	8536                	mv	a0,a3
1c009d0c:	b7f5                	j	1c009cf8 <__muldf3+0x39e>
1c009d0e:	4701                	li	a4,0
1c009d10:	4781                	li	a5,0
1c009d12:	7ff00893          	li	a7,2047
1c009d16:	b529                	j	1c009b20 <__muldf3+0x1c6>
1c009d18:	8e7a                	mv	t3,t5
1c009d1a:	b74d                	j	1c009cbc <__muldf3+0x362>
1c009d1c:	e509                	bnez	a0,1c009d26 <__muldf3+0x3cc>
1c009d1e:	00878693          	addi	a3,a5,8
1c009d22:	b7d1                	j	1c009ce6 <__muldf3+0x38c>
1c009d24:	fd6d                	bnez	a0,1c009d1e <__muldf3+0x3c4>
1c009d26:	00771693          	slli	a3,a4,0x7
1c009d2a:	0006d663          	bgez	a3,1c009d36 <__muldf3+0x3dc>
1c009d2e:	c1873733          	p.bclr	a4,a4,0,24
1c009d32:	400e0893          	addi	a7,t3,1024
1c009d36:	7fe00693          	li	a3,2046
1c009d3a:	0116c963          	blt	a3,a7,1c009d4c <__muldf3+0x3f2>
1c009d3e:	0037d693          	srli	a3,a5,0x3
1c009d42:	01d71793          	slli	a5,a4,0x1d
1c009d46:	8fd5                	or	a5,a5,a3
1c009d48:	830d                	srli	a4,a4,0x3
1c009d4a:	bbd9                	j	1c009b20 <__muldf3+0x1c6>
1c009d4c:	02232263          	p.beqimm	t1,2,1c009d70 <__muldf3+0x416>
1c009d50:	00332b63          	p.beqimm	t1,3,1c009d66 <__muldf3+0x40c>
1c009d54:	00030a63          	beqz	t1,1c009d68 <__muldf3+0x40e>
1c009d58:	57fd                	li	a5,-1
1c009d5a:	7fe00893          	li	a7,2046
1c009d5e:	00586813          	ori	a6,a6,5
1c009d62:	873e                	mv	a4,a5
1c009d64:	bb75                	j	1c009b20 <__muldf3+0x1c6>
1c009d66:	f96d                	bnez	a0,1c009d58 <__muldf3+0x3fe>
1c009d68:	4781                	li	a5,0
1c009d6a:	7ff00893          	li	a7,2047
1c009d6e:	bfc5                	j	1c009d5e <__muldf3+0x404>
1c009d70:	fd65                	bnez	a0,1c009d68 <__muldf3+0x40e>
1c009d72:	b7dd                	j	1c009d58 <__muldf3+0x3fe>
1c009d74:	4585                	li	a1,1
1c009d76:	04089363          	bnez	a7,1c009dbc <__muldf3+0x462>
1c009d7a:	f837b6b3          	p.bclr	a3,a5,28,3
1c009d7e:	863a                	mv	a2,a4
1c009d80:	ca85                	beqz	a3,1c009db0 <__muldf3+0x456>
1c009d82:	c0084833          	p.bset	a6,a6,0,0
1c009d86:	02232463          	p.beqimm	t1,2,1c009dae <__muldf3+0x454>
1c009d8a:	00332e63          	p.beqimm	t1,3,1c009da6 <__muldf3+0x44c>
1c009d8e:	02031163          	bnez	t1,1c009db0 <__muldf3+0x456>
1c009d92:	f647b6b3          	p.bclr	a3,a5,27,4
1c009d96:	0046ad63          	p.beqimm	a3,4,1c009db0 <__muldf3+0x456>
1c009d9a:	ffc7b613          	sltiu	a2,a5,-4
1c009d9e:	00164613          	xori	a2,a2,1
1c009da2:	963a                	add	a2,a2,a4
1c009da4:	a031                	j	1c009db0 <__muldf3+0x456>
1c009da6:	e509                	bnez	a0,1c009db0 <__muldf3+0x456>
1c009da8:	ff87b613          	sltiu	a2,a5,-8
1c009dac:	bfcd                	j	1c009d9e <__muldf3+0x444>
1c009dae:	fd6d                	bnez	a0,1c009da8 <__muldf3+0x44e>
1c009db0:	01865593          	srli	a1,a2,0x18
1c009db4:	0015c593          	xori	a1,a1,1
1c009db8:	fc15b5b3          	p.bclr	a1,a1,30,1
1c009dbc:	4605                	li	a2,1
1c009dbe:	41160633          	sub	a2,a2,a7
1c009dc2:	03800693          	li	a3,56
1c009dc6:	0ac6ce63          	blt	a3,a2,1c009e82 <__muldf3+0x528>
1c009dca:	46fd                	li	a3,31
1c009dcc:	04c6c763          	blt	a3,a2,1c009e1a <__muldf3+0x4c0>
1c009dd0:	41ee0e13          	addi	t3,t3,1054
1c009dd4:	01c716b3          	sll	a3,a4,t3
1c009dd8:	00c7d8b3          	srl	a7,a5,a2
1c009ddc:	01c797b3          	sll	a5,a5,t3
1c009de0:	0116e6b3          	or	a3,a3,a7
1c009de4:	00f037b3          	snez	a5,a5
1c009de8:	8fd5                	or	a5,a5,a3
1c009dea:	00c75733          	srl	a4,a4,a2
1c009dee:	f837b6b3          	p.bclr	a3,a5,28,3
1c009df2:	ceb1                	beqz	a3,1c009e4e <__muldf3+0x4f4>
1c009df4:	c0084833          	p.bset	a6,a6,0,0
1c009df8:	04232a63          	p.beqimm	t1,2,1c009e4c <__muldf3+0x4f2>
1c009dfc:	04332463          	p.beqimm	t1,3,1c009e44 <__muldf3+0x4ea>
1c009e00:	04031763          	bnez	t1,1c009e4e <__muldf3+0x4f4>
1c009e04:	f647b6b3          	p.bclr	a3,a5,27,4
1c009e08:	0446a363          	p.beqimm	a3,4,1c009e4e <__muldf3+0x4f4>
1c009e0c:	00478693          	addi	a3,a5,4
1c009e10:	00f6b7b3          	sltu	a5,a3,a5
1c009e14:	973e                	add	a4,a4,a5
1c009e16:	87b6                	mv	a5,a3
1c009e18:	a81d                	j	1c009e4e <__muldf3+0x4f4>
1c009e1a:	5685                	li	a3,-31
1c009e1c:	411686b3          	sub	a3,a3,a7
1c009e20:	02000e93          	li	t4,32
1c009e24:	00d756b3          	srl	a3,a4,a3
1c009e28:	4881                	li	a7,0
1c009e2a:	01d60663          	beq	a2,t4,1c009e36 <__muldf3+0x4dc>
1c009e2e:	43ee0e13          	addi	t3,t3,1086
1c009e32:	01c718b3          	sll	a7,a4,t3
1c009e36:	00f8e7b3          	or	a5,a7,a5
1c009e3a:	00f037b3          	snez	a5,a5
1c009e3e:	8fd5                	or	a5,a5,a3
1c009e40:	4701                	li	a4,0
1c009e42:	b775                	j	1c009dee <__muldf3+0x494>
1c009e44:	e509                	bnez	a0,1c009e4e <__muldf3+0x4f4>
1c009e46:	00878693          	addi	a3,a5,8
1c009e4a:	b7d9                	j	1c009e10 <__muldf3+0x4b6>
1c009e4c:	fd6d                	bnez	a0,1c009e46 <__muldf3+0x4ec>
1c009e4e:	00871613          	slli	a2,a4,0x8
1c009e52:	02065063          	bgez	a2,1c009e72 <__muldf3+0x518>
1c009e56:	c0084833          	p.bset	a6,a6,0,0
1c009e5a:	4701                	li	a4,0
1c009e5c:	4781                	li	a5,0
1c009e5e:	4885                	li	a7,1
1c009e60:	cc0580e3          	beqz	a1,1c009b20 <__muldf3+0x1c6>
1c009e64:	fc1836b3          	p.bclr	a3,a6,30,1
1c009e68:	ca068ce3          	beqz	a3,1c009b20 <__muldf3+0x1c6>
1c009e6c:	c0184833          	p.bset	a6,a6,0,1
1c009e70:	b945                	j	1c009b20 <__muldf3+0x1c6>
1c009e72:	0037d693          	srli	a3,a5,0x3
1c009e76:	01d71793          	slli	a5,a4,0x1d
1c009e7a:	8fd5                	or	a5,a5,a3
1c009e7c:	830d                	srli	a4,a4,0x3
1c009e7e:	4881                	li	a7,0
1c009e80:	b7c5                	j	1c009e60 <__muldf3+0x506>
1c009e82:	8fd9                	or	a5,a5,a4
1c009e84:	cb99                	beqz	a5,1c009e9a <__muldf3+0x540>
1c009e86:	c0084833          	p.bset	a6,a6,0,0
1c009e8a:	02232163          	p.beqimm	t1,2,1c009eac <__muldf3+0x552>
1c009e8e:	00332b63          	p.beqimm	t1,3,1c009ea4 <__muldf3+0x54a>
1c009e92:	4795                	li	a5,5
1c009e94:	00031a63          	bnez	t1,1c009ea8 <__muldf3+0x54e>
1c009e98:	838d                	srli	a5,a5,0x3
1c009e9a:	c0184833          	p.bset	a6,a6,0,1
1c009e9e:	4701                	li	a4,0
1c009ea0:	4881                	li	a7,0
1c009ea2:	b9bd                	j	1c009b20 <__muldf3+0x1c6>
1c009ea4:	47a5                	li	a5,9
1c009ea6:	d96d                	beqz	a0,1c009e98 <__muldf3+0x53e>
1c009ea8:	4785                	li	a5,1
1c009eaa:	b7fd                	j	1c009e98 <__muldf3+0x53e>
1c009eac:	47a5                	li	a5,9
1c009eae:	f56d                	bnez	a0,1c009e98 <__muldf3+0x53e>
1c009eb0:	bfe5                	j	1c009ea8 <__muldf3+0x54e>
1c009eb2:	00080737          	lui	a4,0x80
1c009eb6:	4781                	li	a5,0
1c009eb8:	7ff00893          	li	a7,2047
1c009ebc:	4501                	li	a0,0
1c009ebe:	b18d                	j	1c009b20 <__muldf3+0x1c6>

1c009ec0 <__subdf3>:
1c009ec0:	00202373          	csrr	t1,0x2
1c009ec4:	e60597b3          	p.extractu	a5,a1,19,0
1c009ec8:	00379893          	slli	a7,a5,0x3
1c009ecc:	01d55793          	srli	a5,a0,0x1d
1c009ed0:	0117e7b3          	or	a5,a5,a7
1c009ed4:	e60698b3          	p.extractu	a7,a3,19,0
1c009ed8:	01d65713          	srli	a4,a2,0x1d
1c009edc:	d5469f33          	p.extractu	t5,a3,10,20
1c009ee0:	088e                	slli	a7,a7,0x3
1c009ee2:	00361813          	slli	a6,a2,0x3
1c009ee6:	7ff00613          	li	a2,2047
1c009eea:	d5459eb3          	p.extractu	t4,a1,10,20
1c009eee:	050e                	slli	a0,a0,0x3
1c009ef0:	81fd                	srli	a1,a1,0x1f
1c009ef2:	82fd                	srli	a3,a3,0x1f
1c009ef4:	01176733          	or	a4,a4,a7
1c009ef8:	00cf1563          	bne	t5,a2,1c009f02 <__subdf3+0x42>
1c009efc:	01076633          	or	a2,a4,a6
1c009f00:	e219                	bnez	a2,1c009f06 <__subdf3+0x46>
1c009f02:	0016c693          	xori	a3,a3,1
1c009f06:	41ee88b3          	sub	a7,t4,t5
1c009f0a:	3ab69863          	bne	a3,a1,1c00a2ba <__subdf3+0x3fa>
1c009f0e:	13105863          	blez	a7,1c00a03e <__subdf3+0x17e>
1c009f12:	080f1863          	bnez	t5,1c009fa2 <__subdf3+0xe2>
1c009f16:	010766b3          	or	a3,a4,a6
1c009f1a:	e28d                	bnez	a3,1c009f3c <__subdf3+0x7c>
1c009f1c:	7ff00713          	li	a4,2047
1c009f20:	3ae89863          	bne	a7,a4,1c00a2d0 <__subdf3+0x410>
1c009f24:	00a7e733          	or	a4,a5,a0
1c009f28:	78070763          	beqz	a4,1c00a6b6 <__subdf3+0x7f6>
1c009f2c:	00979613          	slli	a2,a5,0x9
1c009f30:	7ff00f13          	li	t5,2047
1c009f34:	4881                	li	a7,0
1c009f36:	06065463          	bgez	a2,1c009f9e <__subdf3+0xde>
1c009f3a:	ae09                	j	1c00a24c <__subdf3+0x38c>
1c009f3c:	fff88693          	addi	a3,a7,-1 # 3fffff <__l1_heap_size+0x3f4127>
1c009f40:	e2a1                	bnez	a3,1c009f80 <__subdf3+0xc0>
1c009f42:	982a                	add	a6,a6,a0
1c009f44:	97ba                	add	a5,a5,a4
1c009f46:	00a83533          	sltu	a0,a6,a0
1c009f4a:	00a78733          	add	a4,a5,a0
1c009f4e:	4f05                	li	t5,1
1c009f50:	00871613          	slli	a2,a4,0x8
1c009f54:	46065263          	bgez	a2,1c00a3b8 <__subdf3+0x4f8>
1c009f58:	0f05                	addi	t5,t5,1
1c009f5a:	7ff00793          	li	a5,2047
1c009f5e:	32ff0c63          	beq	t5,a5,1c00a296 <__subdf3+0x3d6>
1c009f62:	c17737b3          	p.bclr	a5,a4,0,23
1c009f66:	00185693          	srli	a3,a6,0x1
1c009f6a:	fc183833          	p.bclr	a6,a6,30,1
1c009f6e:	01f79513          	slli	a0,a5,0x1f
1c009f72:	0106e833          	or	a6,a3,a6
1c009f76:	01056533          	or	a0,a0,a6
1c009f7a:	8385                	srli	a5,a5,0x1
1c009f7c:	4881                	li	a7,0
1c009f7e:	a4f9                	j	1c00a24c <__subdf3+0x38c>
1c009f80:	7ff00613          	li	a2,2047
1c009f84:	04c89263          	bne	a7,a2,1c009fc8 <__subdf3+0x108>
1c009f88:	00a7e733          	or	a4,a5,a0
1c009f8c:	72070563          	beqz	a4,1c00a6b6 <__subdf3+0x7f6>
1c009f90:	00979713          	slli	a4,a5,0x9
1c009f94:	7ff00f13          	li	t5,2047
1c009f98:	4881                	li	a7,0
1c009f9a:	2a074963          	bltz	a4,1c00a24c <__subdf3+0x38c>
1c009f9e:	4e41                	li	t3,16
1c009fa0:	aac9                	j	1c00a172 <__subdf3+0x2b2>
1c009fa2:	7ff00693          	li	a3,2047
1c009fa6:	00de9e63          	bne	t4,a3,1c009fc2 <__subdf3+0x102>
1c009faa:	00a7e733          	or	a4,a5,a0
1c009fae:	70070463          	beqz	a4,1c00a6b6 <__subdf3+0x7f6>
1c009fb2:	00979e13          	slli	t3,a5,0x9
1c009fb6:	7ff00f13          	li	t5,2047
1c009fba:	4881                	li	a7,0
1c009fbc:	fe0e51e3          	bgez	t3,1c009f9e <__subdf3+0xde>
1c009fc0:	a471                	j	1c00a24c <__subdf3+0x38c>
1c009fc2:	c1774733          	p.bset	a4,a4,0,23
1c009fc6:	86c6                	mv	a3,a7
1c009fc8:	03800613          	li	a2,56
1c009fcc:	06d64463          	blt	a2,a3,1c00a034 <__subdf3+0x174>
1c009fd0:	467d                	li	a2,31
1c009fd2:	02d64c63          	blt	a2,a3,1c00a00a <__subdf3+0x14a>
1c009fd6:	02000893          	li	a7,32
1c009fda:	40d888b3          	sub	a7,a7,a3
1c009fde:	00d85e33          	srl	t3,a6,a3
1c009fe2:	01171633          	sll	a2,a4,a7
1c009fe6:	01181833          	sll	a6,a6,a7
1c009fea:	01c66633          	or	a2,a2,t3
1c009fee:	01003833          	snez	a6,a6
1c009ff2:	01066833          	or	a6,a2,a6
1c009ff6:	00d756b3          	srl	a3,a4,a3
1c009ffa:	982a                	add	a6,a6,a0
1c009ffc:	96be                	add	a3,a3,a5
1c009ffe:	00a837b3          	sltu	a5,a6,a0
1c00a002:	00f68733          	add	a4,a3,a5
1c00a006:	8f76                	mv	t5,t4
1c00a008:	b7a1                	j	1c009f50 <__subdf3+0x90>
1c00a00a:	02000e13          	li	t3,32
1c00a00e:	00d75633          	srl	a2,a4,a3
1c00a012:	4881                	li	a7,0
1c00a014:	01c68863          	beq	a3,t3,1c00a024 <__subdf3+0x164>
1c00a018:	04000893          	li	a7,64
1c00a01c:	40d886b3          	sub	a3,a7,a3
1c00a020:	00d718b3          	sll	a7,a4,a3
1c00a024:	0108e833          	or	a6,a7,a6
1c00a028:	01003833          	snez	a6,a6
1c00a02c:	01066833          	or	a6,a2,a6
1c00a030:	4681                	li	a3,0
1c00a032:	b7e1                	j	1c009ffa <__subdf3+0x13a>
1c00a034:	01076833          	or	a6,a4,a6
1c00a038:	01003833          	snez	a6,a6
1c00a03c:	bfd5                	j	1c00a030 <__subdf3+0x170>
1c00a03e:	0e088a63          	beqz	a7,1c00a132 <__subdf3+0x272>
1c00a042:	040e9e63          	bnez	t4,1c00a09e <__subdf3+0x1de>
1c00a046:	00a7e6b3          	or	a3,a5,a0
1c00a04a:	e28d                	bnez	a3,1c00a06c <__subdf3+0x1ac>
1c00a04c:	7ff00793          	li	a5,2047
1c00a050:	36ff1463          	bne	t5,a5,1c00a3b8 <__subdf3+0x4f8>
1c00a054:	01076533          	or	a0,a4,a6
1c00a058:	66050563          	beqz	a0,1c00a6c2 <__subdf3+0x802>
1c00a05c:	00971e93          	slli	t4,a4,0x9
1c00a060:	87ba                	mv	a5,a4
1c00a062:	8542                	mv	a0,a6
1c00a064:	4881                	li	a7,0
1c00a066:	f20edce3          	bgez	t4,1c009f9e <__subdf3+0xde>
1c00a06a:	a2cd                	j	1c00a24c <__subdf3+0x38c>
1c00a06c:	01f8ba63          	p.bneimm	a7,-1,1c00a080 <__subdf3+0x1c0>
1c00a070:	010506b3          	add	a3,a0,a6
1c00a074:	97ba                	add	a5,a5,a4
1c00a076:	0106b733          	sltu	a4,a3,a6
1c00a07a:	973e                	add	a4,a4,a5
1c00a07c:	8836                	mv	a6,a3
1c00a07e:	bdc9                	j	1c009f50 <__subdf3+0x90>
1c00a080:	7ff00693          	li	a3,2047
1c00a084:	fff8c893          	not	a7,a7
1c00a088:	02df1e63          	bne	t5,a3,1c00a0c4 <__subdf3+0x204>
1c00a08c:	01076533          	or	a0,a4,a6
1c00a090:	62050963          	beqz	a0,1c00a6c2 <__subdf3+0x802>
1c00a094:	00971613          	slli	a2,a4,0x9
1c00a098:	87ba                	mv	a5,a4
1c00a09a:	8542                	mv	a0,a6
1c00a09c:	bd61                	j	1c009f34 <__subdf3+0x74>
1c00a09e:	7ff00693          	li	a3,2047
1c00a0a2:	00df1d63          	bne	t5,a3,1c00a0bc <__subdf3+0x1fc>
1c00a0a6:	01076533          	or	a0,a4,a6
1c00a0aa:	60050c63          	beqz	a0,1c00a6c2 <__subdf3+0x802>
1c00a0ae:	00971793          	slli	a5,a4,0x9
1c00a0b2:	5e07db63          	bgez	a5,1c00a6a8 <__subdf3+0x7e8>
1c00a0b6:	87ba                	mv	a5,a4
1c00a0b8:	8542                	mv	a0,a6
1c00a0ba:	b5c9                	j	1c009f7c <__subdf3+0xbc>
1c00a0bc:	411008b3          	neg	a7,a7
1c00a0c0:	c177c7b3          	p.bset	a5,a5,0,23
1c00a0c4:	03800693          	li	a3,56
1c00a0c8:	0716c163          	blt	a3,a7,1c00a12a <__subdf3+0x26a>
1c00a0cc:	46fd                	li	a3,31
1c00a0ce:	0316cb63          	blt	a3,a7,1c00a104 <__subdf3+0x244>
1c00a0d2:	02000613          	li	a2,32
1c00a0d6:	41160633          	sub	a2,a2,a7
1c00a0da:	01155e33          	srl	t3,a0,a7
1c00a0de:	00c796b3          	sll	a3,a5,a2
1c00a0e2:	00c51533          	sll	a0,a0,a2
1c00a0e6:	01c6e6b3          	or	a3,a3,t3
1c00a0ea:	00a03533          	snez	a0,a0
1c00a0ee:	8d55                	or	a0,a0,a3
1c00a0f0:	0117d8b3          	srl	a7,a5,a7
1c00a0f4:	9542                	add	a0,a0,a6
1c00a0f6:	00e887b3          	add	a5,a7,a4
1c00a0fa:	01053733          	sltu	a4,a0,a6
1c00a0fe:	973e                	add	a4,a4,a5
1c00a100:	882a                	mv	a6,a0
1c00a102:	b5b9                	j	1c009f50 <__subdf3+0x90>
1c00a104:	02000e13          	li	t3,32
1c00a108:	0117d6b3          	srl	a3,a5,a7
1c00a10c:	4601                	li	a2,0
1c00a10e:	01c88863          	beq	a7,t3,1c00a11e <__subdf3+0x25e>
1c00a112:	04000613          	li	a2,64
1c00a116:	411608b3          	sub	a7,a2,a7
1c00a11a:	01179633          	sll	a2,a5,a7
1c00a11e:	8d51                	or	a0,a0,a2
1c00a120:	00a03533          	snez	a0,a0
1c00a124:	8d55                	or	a0,a0,a3
1c00a126:	4881                	li	a7,0
1c00a128:	b7f1                	j	1c00a0f4 <__subdf3+0x234>
1c00a12a:	8d5d                	or	a0,a0,a5
1c00a12c:	00a03533          	snez	a0,a0
1c00a130:	bfdd                	j	1c00a126 <__subdf3+0x266>
1c00a132:	001e8693          	addi	a3,t4,1
1c00a136:	e8b6be33          	p.bclr	t3,a3,20,11
1c00a13a:	4605                	li	a2,1
1c00a13c:	0fc64763          	blt	a2,t3,1c00a22a <__subdf3+0x36a>
1c00a140:	00a7e6b3          	or	a3,a5,a0
1c00a144:	040e9263          	bnez	t4,1c00a188 <__subdf3+0x2c8>
1c00a148:	26068a63          	beqz	a3,1c00a3bc <__subdf3+0x4fc>
1c00a14c:	010766b3          	or	a3,a4,a6
1c00a150:	52068a63          	beqz	a3,1c00a684 <__subdf3+0x7c4>
1c00a154:	982a                	add	a6,a6,a0
1c00a156:	97ba                	add	a5,a5,a4
1c00a158:	00a83533          	sltu	a0,a6,a0
1c00a15c:	00a78733          	add	a4,a5,a0
1c00a160:	00871e13          	slli	t3,a4,0x8
1c00a164:	240e5c63          	bgez	t3,1c00a3bc <__subdf3+0x4fc>
1c00a168:	c17737b3          	p.bclr	a5,a4,0,23
1c00a16c:	8542                	mv	a0,a6
1c00a16e:	4e01                	li	t3,0
1c00a170:	4f05                	li	t5,1
1c00a172:	f8353733          	p.bclr	a4,a0,28,3
1c00a176:	e77d                	bnez	a4,1c00a264 <__subdf3+0x3a4>
1c00a178:	04088b63          	beqz	a7,1c00a1ce <__subdf3+0x30e>
1c00a17c:	fc1e3733          	p.bclr	a4,t3,30,1
1c00a180:	c739                	beqz	a4,1c00a1ce <__subdf3+0x30e>
1c00a182:	c01e4e33          	p.bset	t3,t3,0,1
1c00a186:	a0a1                	j	1c00a1ce <__subdf3+0x30e>
1c00a188:	7ff00613          	li	a2,2047
1c00a18c:	08ce9a63          	bne	t4,a2,1c00a220 <__subdf3+0x360>
1c00a190:	58068a63          	beqz	a3,1c00a724 <__subdf3+0x864>
1c00a194:	00400e37          	lui	t3,0x400
1c00a198:	01c7fe33          	and	t3,a5,t3
1c00a19c:	001e3e13          	seqz	t3,t3
1c00a1a0:	0e12                	slli	t3,t3,0x4
1c00a1a2:	01df1c63          	bne	t5,t4,1c00a1ba <__subdf3+0x2fa>
1c00a1a6:	01076633          	or	a2,a4,a6
1c00a1aa:	c611                	beqz	a2,1c00a1b6 <__subdf3+0x2f6>
1c00a1ac:	00971e93          	slli	t4,a4,0x9
1c00a1b0:	000ec363          	bltz	t4,1c00a1b6 <__subdf3+0x2f6>
1c00a1b4:	4e41                	li	t3,16
1c00a1b6:	4e068d63          	beqz	a3,1c00a6b0 <__subdf3+0x7f0>
1c00a1ba:	01076733          	or	a4,a4,a6
1c00a1be:	3c070663          	beqz	a4,1c00a58a <__subdf3+0x6ca>
1c00a1c2:	004007b7          	lui	a5,0x400
1c00a1c6:	4501                	li	a0,0
1c00a1c8:	7ff00f13          	li	t5,2047
1c00a1cc:	4581                	li	a1,0
1c00a1ce:	00879613          	slli	a2,a5,0x8
1c00a1d2:	00065963          	bgez	a2,1c00a1e4 <__subdf3+0x324>
1c00a1d6:	0f05                	addi	t5,t5,1
1c00a1d8:	7ff00713          	li	a4,2047
1c00a1dc:	50ef0f63          	beq	t5,a4,1c00a6fa <__subdf3+0x83a>
1c00a1e0:	c177b7b3          	p.bclr	a5,a5,0,23
1c00a1e4:	01d79713          	slli	a4,a5,0x1d
1c00a1e8:	810d                	srli	a0,a0,0x3
1c00a1ea:	7ff00693          	li	a3,2047
1c00a1ee:	8f49                	or	a4,a4,a0
1c00a1f0:	838d                	srli	a5,a5,0x3
1c00a1f2:	00df1963          	bne	t5,a3,1c00a204 <__subdf3+0x344>
1c00a1f6:	8f5d                	or	a4,a4,a5
1c00a1f8:	4781                	li	a5,0
1c00a1fa:	c709                	beqz	a4,1c00a204 <__subdf3+0x344>
1c00a1fc:	000807b7          	lui	a5,0x80
1c00a200:	4701                	li	a4,0
1c00a202:	4581                	li	a1,0
1c00a204:	4681                	li	a3,0
1c00a206:	e607a6b3          	p.insert	a3,a5,19,0
1c00a20a:	d54f26b3          	p.insert	a3,t5,10,20
1c00a20e:	c1f5a6b3          	p.insert	a3,a1,0,31
1c00a212:	853a                	mv	a0,a4
1c00a214:	85b6                	mv	a1,a3
1c00a216:	500e0e63          	beqz	t3,1c00a732 <__subdf3+0x872>
1c00a21a:	001e2073          	csrs	0x1,t3
1c00a21e:	8082                	ret
1c00a220:	4e01                	li	t3,0
1c00a222:	f8cf1ae3          	bne	t5,a2,1c00a1b6 <__subdf3+0x2f6>
1c00a226:	4e01                	li	t3,0
1c00a228:	bfbd                	j	1c00a1a6 <__subdf3+0x2e6>
1c00a22a:	7ff00613          	li	a2,2047
1c00a22e:	02c68163          	beq	a3,a2,1c00a250 <__subdf3+0x390>
1c00a232:	982a                	add	a6,a6,a0
1c00a234:	00a83533          	sltu	a0,a6,a0
1c00a238:	97ba                	add	a5,a5,a4
1c00a23a:	97aa                	add	a5,a5,a0
1c00a23c:	01f79513          	slli	a0,a5,0x1f
1c00a240:	00185813          	srli	a6,a6,0x1
1c00a244:	01056533          	or	a0,a0,a6
1c00a248:	8385                	srli	a5,a5,0x1
1c00a24a:	8f36                	mv	t5,a3
1c00a24c:	4e01                	li	t3,0
1c00a24e:	b715                	j	1c00a172 <__subdf3+0x2b2>
1c00a250:	04030063          	beqz	t1,1c00a290 <__subdf3+0x3d0>
1c00a254:	02333b63          	p.bneimm	t1,3,1c00a28a <__subdf3+0x3ca>
1c00a258:	cd85                	beqz	a1,1c00a290 <__subdf3+0x3d0>
1c00a25a:	57fd                	li	a5,-1
1c00a25c:	557d                	li	a0,-1
1c00a25e:	7fe00f13          	li	t5,2046
1c00a262:	4e15                	li	t3,5
1c00a264:	c00e4e33          	p.bset	t3,t3,0,0
1c00a268:	48232663          	p.beqimm	t1,2,1c00a6f4 <__subdf3+0x834>
1c00a26c:	46332f63          	p.beqimm	t1,3,1c00a6ea <__subdf3+0x82a>
1c00a270:	f00314e3          	bnez	t1,1c00a178 <__subdf3+0x2b8>
1c00a274:	f6453733          	p.bclr	a4,a0,27,4
1c00a278:	f04720e3          	p.beqimm	a4,4,1c00a178 <__subdf3+0x2b8>
1c00a27c:	00450713          	addi	a4,a0,4
1c00a280:	00a73533          	sltu	a0,a4,a0
1c00a284:	97aa                	add	a5,a5,a0
1c00a286:	853a                	mv	a0,a4
1c00a288:	bdc5                	j	1c00a178 <__subdf3+0x2b8>
1c00a28a:	fc2338e3          	p.bneimm	t1,2,1c00a25a <__subdf3+0x39a>
1c00a28e:	d5f1                	beqz	a1,1c00a25a <__subdf3+0x39a>
1c00a290:	7ff00f13          	li	t5,2047
1c00a294:	a839                	j	1c00a2b2 <__subdf3+0x3f2>
1c00a296:	00030e63          	beqz	t1,1c00a2b2 <__subdf3+0x3f2>
1c00a29a:	00333963          	p.bneimm	t1,3,1c00a2ac <__subdf3+0x3ec>
1c00a29e:	c991                	beqz	a1,1c00a2b2 <__subdf3+0x3f2>
1c00a2a0:	57fd                	li	a5,-1
1c00a2a2:	557d                	li	a0,-1
1c00a2a4:	7fe00f13          	li	t5,2046
1c00a2a8:	4881                	li	a7,0
1c00a2aa:	bf65                	j	1c00a262 <__subdf3+0x3a2>
1c00a2ac:	fe233ae3          	p.bneimm	t1,2,1c00a2a0 <__subdf3+0x3e0>
1c00a2b0:	d9e5                	beqz	a1,1c00a2a0 <__subdf3+0x3e0>
1c00a2b2:	4781                	li	a5,0
1c00a2b4:	4501                	li	a0,0
1c00a2b6:	4e15                	li	t3,5
1c00a2b8:	bf19                	j	1c00a1ce <__subdf3+0x30e>
1c00a2ba:	0f105363          	blez	a7,1c00a3a0 <__subdf3+0x4e0>
1c00a2be:	080f1663          	bnez	t5,1c00a34a <__subdf3+0x48a>
1c00a2c2:	010766b3          	or	a3,a4,a6
1c00a2c6:	e699                	bnez	a3,1c00a2d4 <__subdf3+0x414>
1c00a2c8:	7ff00713          	li	a4,2047
1c00a2cc:	cae88ee3          	beq	a7,a4,1c009f88 <__subdf3+0xc8>
1c00a2d0:	8f46                	mv	t5,a7
1c00a2d2:	b16d                	j	1c009f7c <__subdf3+0xbc>
1c00a2d4:	fff88693          	addi	a3,a7,-1
1c00a2d8:	e295                	bnez	a3,1c00a2fc <__subdf3+0x43c>
1c00a2da:	41050833          	sub	a6,a0,a6
1c00a2de:	8f99                	sub	a5,a5,a4
1c00a2e0:	01053533          	sltu	a0,a0,a6
1c00a2e4:	40a78733          	sub	a4,a5,a0
1c00a2e8:	4f05                	li	t5,1
1c00a2ea:	00871e93          	slli	t4,a4,0x8
1c00a2ee:	0c0ed563          	bgez	t4,1c00a3b8 <__subdf3+0x4f8>
1c00a2f2:	d1773633          	p.bclr	a2,a4,8,23
1c00a2f6:	88c2                	mv	a7,a6
1c00a2f8:	8efa                	mv	t4,t5
1c00a2fa:	a4f9                	j	1c00a5c8 <__subdf3+0x708>
1c00a2fc:	7ff00613          	li	a2,2047
1c00a300:	cac885e3          	beq	a7,a2,1c009faa <__subdf3+0xea>
1c00a304:	03800613          	li	a2,56
1c00a308:	08d64763          	blt	a2,a3,1c00a396 <__subdf3+0x4d6>
1c00a30c:	467d                	li	a2,31
1c00a30e:	04d64f63          	blt	a2,a3,1c00a36c <__subdf3+0x4ac>
1c00a312:	02000893          	li	a7,32
1c00a316:	40d888b3          	sub	a7,a7,a3
1c00a31a:	00d85e33          	srl	t3,a6,a3
1c00a31e:	01171633          	sll	a2,a4,a7
1c00a322:	01181833          	sll	a6,a6,a7
1c00a326:	01c66633          	or	a2,a2,t3
1c00a32a:	01003833          	snez	a6,a6
1c00a32e:	01066833          	or	a6,a2,a6
1c00a332:	00d756b3          	srl	a3,a4,a3
1c00a336:	41050833          	sub	a6,a0,a6
1c00a33a:	40d786b3          	sub	a3,a5,a3
1c00a33e:	010537b3          	sltu	a5,a0,a6
1c00a342:	40f68733          	sub	a4,a3,a5
1c00a346:	8f76                	mv	t5,t4
1c00a348:	b74d                	j	1c00a2ea <__subdf3+0x42a>
1c00a34a:	7ff00693          	li	a3,2047
1c00a34e:	00de9b63          	bne	t4,a3,1c00a364 <__subdf3+0x4a4>
1c00a352:	00a7e733          	or	a4,a5,a0
1c00a356:	36070063          	beqz	a4,1c00a6b6 <__subdf3+0x7f6>
1c00a35a:	00979e93          	slli	t4,a5,0x9
1c00a35e:	7ff00f13          	li	t5,2047
1c00a362:	b309                	j	1c00a064 <__subdf3+0x1a4>
1c00a364:	c1774733          	p.bset	a4,a4,0,23
1c00a368:	86c6                	mv	a3,a7
1c00a36a:	bf69                	j	1c00a304 <__subdf3+0x444>
1c00a36c:	02000e13          	li	t3,32
1c00a370:	00d75633          	srl	a2,a4,a3
1c00a374:	4881                	li	a7,0
1c00a376:	01c68863          	beq	a3,t3,1c00a386 <__subdf3+0x4c6>
1c00a37a:	04000893          	li	a7,64
1c00a37e:	40d886b3          	sub	a3,a7,a3
1c00a382:	00d718b3          	sll	a7,a4,a3
1c00a386:	0108e833          	or	a6,a7,a6
1c00a38a:	01003833          	snez	a6,a6
1c00a38e:	01066833          	or	a6,a2,a6
1c00a392:	4681                	li	a3,0
1c00a394:	b74d                	j	1c00a336 <__subdf3+0x476>
1c00a396:	01076833          	or	a6,a4,a6
1c00a39a:	01003833          	snez	a6,a6
1c00a39e:	bfd5                	j	1c00a392 <__subdf3+0x4d2>
1c00a3a0:	0e088a63          	beqz	a7,1c00a494 <__subdf3+0x5d4>
1c00a3a4:	040e9d63          	bnez	t4,1c00a3fe <__subdf3+0x53e>
1c00a3a8:	00a7e633          	or	a2,a5,a0
1c00a3ac:	ea11                	bnez	a2,1c00a3c0 <__subdf3+0x500>
1c00a3ae:	7ff00793          	li	a5,2047
1c00a3b2:	85b6                	mv	a1,a3
1c00a3b4:	ccff0ce3          	beq	t5,a5,1c00a08c <__subdf3+0x1cc>
1c00a3b8:	ce0f1fe3          	bnez	t5,1c00a0b6 <__subdf3+0x1f6>
1c00a3bc:	8542                	mv	a0,a6
1c00a3be:	a211                	j	1c00a4c2 <__subdf3+0x602>
1c00a3c0:	01f8bd63          	p.bneimm	a7,-1,1c00a3da <__subdf3+0x51a>
1c00a3c4:	40a805b3          	sub	a1,a6,a0
1c00a3c8:	40f707b3          	sub	a5,a4,a5
1c00a3cc:	00b83733          	sltu	a4,a6,a1
1c00a3d0:	40e78733          	sub	a4,a5,a4
1c00a3d4:	882e                	mv	a6,a1
1c00a3d6:	85b6                	mv	a1,a3
1c00a3d8:	bf09                	j	1c00a2ea <__subdf3+0x42a>
1c00a3da:	7ff00613          	li	a2,2047
1c00a3de:	fff8c893          	not	a7,a7
1c00a3e2:	04cf1063          	bne	t5,a2,1c00a422 <__subdf3+0x562>
1c00a3e6:	01076533          	or	a0,a4,a6
1c00a3ea:	2e050263          	beqz	a0,1c00a6ce <__subdf3+0x80e>
1c00a3ee:	00971793          	slli	a5,a4,0x9
1c00a3f2:	2c07da63          	bgez	a5,1c00a6c6 <__subdf3+0x806>
1c00a3f6:	87ba                	mv	a5,a4
1c00a3f8:	8542                	mv	a0,a6
1c00a3fa:	85b6                	mv	a1,a3
1c00a3fc:	b641                	j	1c009f7c <__subdf3+0xbc>
1c00a3fe:	7ff00613          	li	a2,2047
1c00a402:	00cf1c63          	bne	t5,a2,1c00a41a <__subdf3+0x55a>
1c00a406:	01076533          	or	a0,a4,a6
1c00a40a:	2c050263          	beqz	a0,1c00a6ce <__subdf3+0x80e>
1c00a40e:	00971e13          	slli	t3,a4,0x9
1c00a412:	87ba                	mv	a5,a4
1c00a414:	8542                	mv	a0,a6
1c00a416:	85b6                	mv	a1,a3
1c00a418:	b64d                	j	1c009fba <__subdf3+0xfa>
1c00a41a:	411008b3          	neg	a7,a7
1c00a41e:	c177c7b3          	p.bset	a5,a5,0,23
1c00a422:	03800613          	li	a2,56
1c00a426:	07164363          	blt	a2,a7,1c00a48c <__subdf3+0x5cc>
1c00a42a:	467d                	li	a2,31
1c00a42c:	03164d63          	blt	a2,a7,1c00a466 <__subdf3+0x5a6>
1c00a430:	02000593          	li	a1,32
1c00a434:	411585b3          	sub	a1,a1,a7
1c00a438:	01155e33          	srl	t3,a0,a7
1c00a43c:	00b79633          	sll	a2,a5,a1
1c00a440:	00b51533          	sll	a0,a0,a1
1c00a444:	01c66633          	or	a2,a2,t3
1c00a448:	00a03533          	snez	a0,a0
1c00a44c:	8d51                	or	a0,a0,a2
1c00a44e:	0117d8b3          	srl	a7,a5,a7
1c00a452:	40a80533          	sub	a0,a6,a0
1c00a456:	411707b3          	sub	a5,a4,a7
1c00a45a:	00a83733          	sltu	a4,a6,a0
1c00a45e:	40e78733          	sub	a4,a5,a4
1c00a462:	882a                	mv	a6,a0
1c00a464:	bf8d                	j	1c00a3d6 <__subdf3+0x516>
1c00a466:	02000e13          	li	t3,32
1c00a46a:	0117d633          	srl	a2,a5,a7
1c00a46e:	4581                	li	a1,0
1c00a470:	01c88863          	beq	a7,t3,1c00a480 <__subdf3+0x5c0>
1c00a474:	04000593          	li	a1,64
1c00a478:	411588b3          	sub	a7,a1,a7
1c00a47c:	011795b3          	sll	a1,a5,a7
1c00a480:	8d4d                	or	a0,a0,a1
1c00a482:	00a03533          	snez	a0,a0
1c00a486:	8d51                	or	a0,a0,a2
1c00a488:	4881                	li	a7,0
1c00a48a:	b7e1                	j	1c00a452 <__subdf3+0x592>
1c00a48c:	8d5d                	or	a0,a0,a5
1c00a48e:	00a03533          	snez	a0,a0
1c00a492:	bfdd                	j	1c00a488 <__subdf3+0x5c8>
1c00a494:	001e8613          	addi	a2,t4,1
1c00a498:	e8b63633          	p.bclr	a2,a2,20,11
1c00a49c:	4e05                	li	t3,1
1c00a49e:	10ce4063          	blt	t3,a2,1c00a59e <__subdf3+0x6de>
1c00a4a2:	00a7efb3          	or	t6,a5,a0
1c00a4a6:	01076633          	or	a2,a4,a6
1c00a4aa:	0a0e9463          	bnez	t4,1c00a552 <__subdf3+0x692>
1c00a4ae:	060f9063          	bnez	t6,1c00a50e <__subdf3+0x64e>
1c00a4b2:	1c061763          	bnez	a2,1c00a680 <__subdf3+0x7c0>
1c00a4b6:	ffe30593          	addi	a1,t1,-2
1c00a4ba:	0015b593          	seqz	a1,a1
1c00a4be:	4701                	li	a4,0
1c00a4c0:	4501                	li	a0,0
1c00a4c2:	00e567b3          	or	a5,a0,a4
1c00a4c6:	20078f63          	beqz	a5,1c00a6e4 <__subdf3+0x824>
1c00a4ca:	01f55793          	srli	a5,a0,0x1f
1c00a4ce:	00171893          	slli	a7,a4,0x1
1c00a4d2:	98be                	add	a7,a7,a5
1c00a4d4:	00151793          	slli	a5,a0,0x1
1c00a4d8:	f837b6b3          	p.bclr	a3,a5,28,3
1c00a4dc:	4e01                	li	t3,0
1c00a4de:	ce99                	beqz	a3,1c00a4fc <__subdf3+0x63c>
1c00a4e0:	1c232063          	p.beqimm	t1,2,1c00a6a0 <__subdf3+0x7e0>
1c00a4e4:	1a332563          	p.beqimm	t1,3,1c00a68e <__subdf3+0x7ce>
1c00a4e8:	4e05                	li	t3,1
1c00a4ea:	00031963          	bnez	t1,1c00a4fc <__subdf3+0x63c>
1c00a4ee:	f647b6b3          	p.bclr	a3,a5,27,4
1c00a4f2:	4e05                	li	t3,1
1c00a4f4:	ffc7b793          	sltiu	a5,a5,-4
1c00a4f8:	1a46b063          	p.bneimm	a3,4,1c00a698 <__subdf3+0x7d8>
1c00a4fc:	0188d893          	srli	a7,a7,0x18
1c00a500:	0018c893          	xori	a7,a7,1
1c00a504:	fc18b8b3          	p.bclr	a7,a7,30,1
1c00a508:	87ba                	mv	a5,a4
1c00a50a:	4f01                	li	t5,0
1c00a50c:	b19d                	j	1c00a172 <__subdf3+0x2b2>
1c00a50e:	16060b63          	beqz	a2,1c00a684 <__subdf3+0x7c4>
1c00a512:	410508b3          	sub	a7,a0,a6
1c00a516:	40e78633          	sub	a2,a5,a4
1c00a51a:	01153e33          	sltu	t3,a0,a7
1c00a51e:	41c60633          	sub	a2,a2,t3
1c00a522:	00861e93          	slli	t4,a2,0x8
1c00a526:	000edc63          	bgez	t4,1c00a53e <__subdf3+0x67e>
1c00a52a:	40a80533          	sub	a0,a6,a0
1c00a52e:	40f707b3          	sub	a5,a4,a5
1c00a532:	00a83733          	sltu	a4,a6,a0
1c00a536:	40e78733          	sub	a4,a5,a4
1c00a53a:	85b6                	mv	a1,a3
1c00a53c:	b759                	j	1c00a4c2 <__subdf3+0x602>
1c00a53e:	00c8e533          	or	a0,a7,a2
1c00a542:	14051363          	bnez	a0,1c00a688 <__subdf3+0x7c8>
1c00a546:	ffe30593          	addi	a1,t1,-2
1c00a54a:	0015b593          	seqz	a1,a1
1c00a54e:	4701                	li	a4,0
1c00a550:	bf8d                	j	1c00a4c2 <__subdf3+0x602>
1c00a552:	7ff00293          	li	t0,2047
1c00a556:	025e9d63          	bne	t4,t0,1c00a590 <__subdf3+0x6d0>
1c00a55a:	1c0f8163          	beqz	t6,1c00a71c <__subdf3+0x85c>
1c00a55e:	00400e37          	lui	t3,0x400
1c00a562:	01c7fe33          	and	t3,a5,t3
1c00a566:	001e3e13          	seqz	t3,t3
1c00a56a:	0e12                	slli	t3,t3,0x4
1c00a56c:	03df1763          	bne	t5,t4,1c00a59a <__subdf3+0x6da>
1c00a570:	c611                	beqz	a2,1c00a57c <__subdf3+0x6bc>
1c00a572:	00971e93          	slli	t4,a4,0x9
1c00a576:	000ec363          	bltz	t4,1c00a57c <__subdf3+0x6bc>
1c00a57a:	4e41                	li	t3,16
1c00a57c:	000f9f63          	bnez	t6,1c00a59a <__subdf3+0x6da>
1c00a580:	14060a63          	beqz	a2,1c00a6d4 <__subdf3+0x814>
1c00a584:	87ba                	mv	a5,a4
1c00a586:	8542                	mv	a0,a6
1c00a588:	85b6                	mv	a1,a3
1c00a58a:	7ff00f13          	li	t5,2047
1c00a58e:	b6d5                	j	1c00a172 <__subdf3+0x2b2>
1c00a590:	4e01                	li	t3,0
1c00a592:	fe5f15e3          	bne	t5,t0,1c00a57c <__subdf3+0x6bc>
1c00a596:	4e01                	li	t3,0
1c00a598:	bfe1                	j	1c00a570 <__subdf3+0x6b0>
1c00a59a:	da65                	beqz	a2,1c00a58a <__subdf3+0x6ca>
1c00a59c:	b11d                	j	1c00a1c2 <__subdf3+0x302>
1c00a59e:	410508b3          	sub	a7,a0,a6
1c00a5a2:	01153e33          	sltu	t3,a0,a7
1c00a5a6:	40e78633          	sub	a2,a5,a4
1c00a5aa:	41c60633          	sub	a2,a2,t3
1c00a5ae:	00861e13          	slli	t3,a2,0x8
1c00a5b2:	060e5c63          	bgez	t3,1c00a62a <__subdf3+0x76a>
1c00a5b6:	40a808b3          	sub	a7,a6,a0
1c00a5ba:	40f707b3          	sub	a5,a4,a5
1c00a5be:	01183733          	sltu	a4,a6,a7
1c00a5c2:	40e78633          	sub	a2,a5,a4
1c00a5c6:	85b6                	mv	a1,a3
1c00a5c8:	c62d                	beqz	a2,1c00a632 <__subdf3+0x772>
1c00a5ca:	100616b3          	p.fl1	a3,a2
1c00a5ce:	47fd                	li	a5,31
1c00a5d0:	40d786b3          	sub	a3,a5,a3
1c00a5d4:	ff868f13          	addi	t5,a3,-8
1c00a5d8:	47fd                	li	a5,31
1c00a5da:	07e7c463          	blt	a5,t5,1c00a642 <__subdf3+0x782>
1c00a5de:	02000793          	li	a5,32
1c00a5e2:	41e787b3          	sub	a5,a5,t5
1c00a5e6:	01e61633          	sll	a2,a2,t5
1c00a5ea:	00f8d733          	srl	a4,a7,a5
1c00a5ee:	00c767b3          	or	a5,a4,a2
1c00a5f2:	01e89833          	sll	a6,a7,t5
1c00a5f6:	09df4063          	blt	t5,t4,1c00a676 <__subdf3+0x7b6>
1c00a5fa:	41df0f33          	sub	t5,t5,t4
1c00a5fe:	001f0713          	addi	a4,t5,1
1c00a602:	46fd                	li	a3,31
1c00a604:	04e6c563          	blt	a3,a4,1c00a64e <__subdf3+0x78e>
1c00a608:	02000693          	li	a3,32
1c00a60c:	8e99                	sub	a3,a3,a4
1c00a60e:	00e85633          	srl	a2,a6,a4
1c00a612:	00d79533          	sll	a0,a5,a3
1c00a616:	00d81833          	sll	a6,a6,a3
1c00a61a:	8d51                	or	a0,a0,a2
1c00a61c:	01003833          	snez	a6,a6
1c00a620:	01056533          	or	a0,a0,a6
1c00a624:	00e7d733          	srl	a4,a5,a4
1c00a628:	bd69                	j	1c00a4c2 <__subdf3+0x602>
1c00a62a:	00c8e533          	or	a0,a7,a2
1c00a62e:	fd49                	bnez	a0,1c00a5c8 <__subdf3+0x708>
1c00a630:	bf19                	j	1c00a546 <__subdf3+0x686>
1c00a632:	100896b3          	p.fl1	a3,a7
1c00a636:	47fd                	li	a5,31
1c00a638:	40d786b3          	sub	a3,a5,a3
1c00a63c:	02068693          	addi	a3,a3,32
1c00a640:	bf51                	j	1c00a5d4 <__subdf3+0x714>
1c00a642:	fd868793          	addi	a5,a3,-40
1c00a646:	00f897b3          	sll	a5,a7,a5
1c00a64a:	4801                	li	a6,0
1c00a64c:	b76d                	j	1c00a5f6 <__subdf3+0x736>
1c00a64e:	1f05                	addi	t5,t5,-31
1c00a650:	02000693          	li	a3,32
1c00a654:	01e7df33          	srl	t5,a5,t5
1c00a658:	4601                	li	a2,0
1c00a65a:	00d70763          	beq	a4,a3,1c00a668 <__subdf3+0x7a8>
1c00a65e:	04000613          	li	a2,64
1c00a662:	8e19                	sub	a2,a2,a4
1c00a664:	00c79633          	sll	a2,a5,a2
1c00a668:	00c86533          	or	a0,a6,a2
1c00a66c:	00a03533          	snez	a0,a0
1c00a670:	00af6533          	or	a0,t5,a0
1c00a674:	bde9                	j	1c00a54e <__subdf3+0x68e>
1c00a676:	41ee8f33          	sub	t5,t4,t5
1c00a67a:	c177b733          	p.bclr	a4,a5,0,23
1c00a67e:	bb2d                	j	1c00a3b8 <__subdf3+0x4f8>
1c00a680:	8542                	mv	a0,a6
1c00a682:	bd65                	j	1c00a53a <__subdf3+0x67a>
1c00a684:	873e                	mv	a4,a5
1c00a686:	bd35                	j	1c00a4c2 <__subdf3+0x602>
1c00a688:	8732                	mv	a4,a2
1c00a68a:	8546                	mv	a0,a7
1c00a68c:	bd1d                	j	1c00a4c2 <__subdf3+0x602>
1c00a68e:	4e05                	li	t3,1
1c00a690:	e60596e3          	bnez	a1,1c00a4fc <__subdf3+0x63c>
1c00a694:	ff87b793          	sltiu	a5,a5,-8
1c00a698:	0017c793          	xori	a5,a5,1
1c00a69c:	98be                	add	a7,a7,a5
1c00a69e:	bdb9                	j	1c00a4fc <__subdf3+0x63c>
1c00a6a0:	4e05                	li	t3,1
1c00a6a2:	e4058de3          	beqz	a1,1c00a4fc <__subdf3+0x63c>
1c00a6a6:	b7fd                	j	1c00a694 <__subdf3+0x7d4>
1c00a6a8:	87ba                	mv	a5,a4
1c00a6aa:	8542                	mv	a0,a6
1c00a6ac:	4881                	li	a7,0
1c00a6ae:	b8c5                	j	1c009f9e <__subdf3+0xde>
1c00a6b0:	87ba                	mv	a5,a4
1c00a6b2:	8542                	mv	a0,a6
1c00a6b4:	bdd9                	j	1c00a58a <__subdf3+0x6ca>
1c00a6b6:	4781                	li	a5,0
1c00a6b8:	4501                	li	a0,0
1c00a6ba:	7ff00f13          	li	t5,2047
1c00a6be:	4e01                	li	t3,0
1c00a6c0:	b639                	j	1c00a1ce <__subdf3+0x30e>
1c00a6c2:	4781                	li	a5,0
1c00a6c4:	bfed                	j	1c00a6be <__subdf3+0x7fe>
1c00a6c6:	87ba                	mv	a5,a4
1c00a6c8:	8542                	mv	a0,a6
1c00a6ca:	85b6                	mv	a1,a3
1c00a6cc:	b7c5                	j	1c00a6ac <__subdf3+0x7ec>
1c00a6ce:	4781                	li	a5,0
1c00a6d0:	85b6                	mv	a1,a3
1c00a6d2:	b7f5                	j	1c00a6be <__subdf3+0x7fe>
1c00a6d4:	4501                	li	a0,0
1c00a6d6:	004007b7          	lui	a5,0x400
1c00a6da:	7ff00f13          	li	t5,2047
1c00a6de:	4581                	li	a1,0
1c00a6e0:	4e41                	li	t3,16
1c00a6e2:	b4f5                	j	1c00a1ce <__subdf3+0x30e>
1c00a6e4:	4501                	li	a0,0
1c00a6e6:	4f01                	li	t5,0
1c00a6e8:	bfd9                	j	1c00a6be <__subdf3+0x7fe>
1c00a6ea:	a80597e3          	bnez	a1,1c00a178 <__subdf3+0x2b8>
1c00a6ee:	00850713          	addi	a4,a0,8
1c00a6f2:	b679                	j	1c00a280 <__subdf3+0x3c0>
1c00a6f4:	a80582e3          	beqz	a1,1c00a178 <__subdf3+0x2b8>
1c00a6f8:	bfdd                	j	1c00a6ee <__subdf3+0x82e>
1c00a6fa:	4501                	li	a0,0
1c00a6fc:	00030c63          	beqz	t1,1c00a714 <__subdf3+0x854>
1c00a700:	00333763          	p.bneimm	t1,3,1c00a70e <__subdf3+0x84e>
1c00a704:	c981                	beqz	a1,1c00a714 <__subdf3+0x854>
1c00a706:	557d                	li	a0,-1
1c00a708:	7fe00f13          	li	t5,2046
1c00a70c:	a021                	j	1c00a714 <__subdf3+0x854>
1c00a70e:	fe233ce3          	p.bneimm	t1,2,1c00a706 <__subdf3+0x846>
1c00a712:	d9f5                	beqz	a1,1c00a706 <__subdf3+0x846>
1c00a714:	005e6e13          	ori	t3,t3,5
1c00a718:	87aa                	mv	a5,a0
1c00a71a:	b4e9                	j	1c00a1e4 <__subdf3+0x324>
1c00a71c:	4e01                	li	t3,0
1c00a71e:	e7df11e3          	bne	t5,t4,1c00a580 <__subdf3+0x6c0>
1c00a722:	bd95                	j	1c00a596 <__subdf3+0x6d6>
1c00a724:	b1df01e3          	beq	t5,t4,1c00a226 <__subdf3+0x366>
1c00a728:	87ba                	mv	a5,a4
1c00a72a:	8542                	mv	a0,a6
1c00a72c:	7ff00f13          	li	t5,2047
1c00a730:	be31                	j	1c00a24c <__subdf3+0x38c>
1c00a732:	8082                	ret

1c00a734 <__unorddf2>:
1c00a734:	882a                	mv	a6,a0
1c00a736:	002027f3          	csrr	a5,0x2
1c00a73a:	7ff00513          	li	a0,2047
1c00a73e:	e6059733          	p.extractu	a4,a1,19,0
1c00a742:	d54595b3          	p.extractu	a1,a1,10,20
1c00a746:	e60697b3          	p.extractu	a5,a3,19,0
1c00a74a:	d54696b3          	p.extractu	a3,a3,10,20
1c00a74e:	00a59563          	bne	a1,a0,1c00a758 <__unorddf2+0x24>
1c00a752:	01076533          	or	a0,a4,a6
1c00a756:	ed01                	bnez	a0,1c00a76e <__unorddf2+0x3a>
1c00a758:	7ff00893          	li	a7,2047
1c00a75c:	4501                	li	a0,0
1c00a75e:	03169b63          	bne	a3,a7,1c00a794 <__unorddf2+0x60>
1c00a762:	00c7e8b3          	or	a7,a5,a2
1c00a766:	02088763          	beqz	a7,1c00a794 <__unorddf2+0x60>
1c00a76a:	00d59d63          	bne	a1,a3,1c00a784 <__unorddf2+0x50>
1c00a76e:	01076833          	or	a6,a4,a6
1c00a772:	00080463          	beqz	a6,1c00a77a <__unorddf2+0x46>
1c00a776:	834d                	srli	a4,a4,0x13
1c00a778:	cb19                	beqz	a4,1c00a78e <__unorddf2+0x5a>
1c00a77a:	7ff00713          	li	a4,2047
1c00a77e:	4505                	li	a0,1
1c00a780:	00e69a63          	bne	a3,a4,1c00a794 <__unorddf2+0x60>
1c00a784:	8e5d                	or	a2,a2,a5
1c00a786:	4505                	li	a0,1
1c00a788:	c611                	beqz	a2,1c00a794 <__unorddf2+0x60>
1c00a78a:	83cd                	srli	a5,a5,0x13
1c00a78c:	e781                	bnez	a5,1c00a794 <__unorddf2+0x60>
1c00a78e:	00186073          	csrsi	0x1,16
1c00a792:	4505                	li	a0,1
1c00a794:	8082                	ret

1c00a796 <__extendsfdf2>:
1c00a796:	002027f3          	csrr	a5,0x2
1c00a79a:	cf751633          	p.extractu	a2,a0,7,23
1c00a79e:	00160713          	addi	a4,a2,1 # 10001 <__l1_heap_size+0x4129>
1c00a7a2:	ee873733          	p.bclr	a4,a4,23,8
1c00a7a6:	4685                	li	a3,1
1c00a7a8:	ec0517b3          	p.extractu	a5,a0,22,0
1c00a7ac:	817d                	srli	a0,a0,0x1f
1c00a7ae:	00e6d963          	ble	a4,a3,1c00a7c0 <__extendsfdf2+0x2a>
1c00a7b2:	0037d713          	srli	a4,a5,0x3
1c00a7b6:	38060613          	addi	a2,a2,896
1c00a7ba:	07f6                	slli	a5,a5,0x1d
1c00a7bc:	4681                	li	a3,0
1c00a7be:	a899                	j	1c00a814 <__extendsfdf2+0x7e>
1c00a7c0:	ee05                	bnez	a2,1c00a7f8 <__extendsfdf2+0x62>
1c00a7c2:	c7ad                	beqz	a5,1c00a82c <__extendsfdf2+0x96>
1c00a7c4:	477d                	li	a4,31
1c00a7c6:	100796b3          	p.fl1	a3,a5
1c00a7ca:	40d706b3          	sub	a3,a4,a3
1c00a7ce:	4729                	li	a4,10
1c00a7d0:	00d74e63          	blt	a4,a3,1c00a7ec <__extendsfdf2+0x56>
1c00a7d4:	472d                	li	a4,11
1c00a7d6:	8f15                	sub	a4,a4,a3
1c00a7d8:	01568613          	addi	a2,a3,21
1c00a7dc:	00e7d733          	srl	a4,a5,a4
1c00a7e0:	00c797b3          	sll	a5,a5,a2
1c00a7e4:	38900613          	li	a2,905
1c00a7e8:	8e15                	sub	a2,a2,a3
1c00a7ea:	bfc9                	j	1c00a7bc <__extendsfdf2+0x26>
1c00a7ec:	ff568713          	addi	a4,a3,-11
1c00a7f0:	00e79733          	sll	a4,a5,a4
1c00a7f4:	4781                	li	a5,0
1c00a7f6:	b7fd                	j	1c00a7e4 <__extendsfdf2+0x4e>
1c00a7f8:	cf8d                	beqz	a5,1c00a832 <__extendsfdf2+0x9c>
1c00a7fa:	004006b7          	lui	a3,0x400
1c00a7fe:	8efd                	and	a3,a3,a5
1c00a800:	0037d713          	srli	a4,a5,0x3
1c00a804:	0016b693          	seqz	a3,a3
1c00a808:	0692                	slli	a3,a3,0x4
1c00a80a:	c1374733          	p.bset	a4,a4,0,19
1c00a80e:	07f6                	slli	a5,a5,0x1d
1c00a810:	7ff00613          	li	a2,2047
1c00a814:	4581                	li	a1,0
1c00a816:	e60725b3          	p.insert	a1,a4,19,0
1c00a81a:	d54625b3          	p.insert	a1,a2,10,20
1c00a81e:	c1f525b3          	p.insert	a1,a0,0,31
1c00a822:	853e                	mv	a0,a5
1c00a824:	c299                	beqz	a3,1c00a82a <__extendsfdf2+0x94>
1c00a826:	0016a073          	csrs	0x1,a3
1c00a82a:	8082                	ret
1c00a82c:	4701                	li	a4,0
1c00a82e:	4601                	li	a2,0
1c00a830:	b771                	j	1c00a7bc <__extendsfdf2+0x26>
1c00a832:	4701                	li	a4,0
1c00a834:	7ff00613          	li	a2,2047
1c00a838:	b751                	j	1c00a7bc <__extendsfdf2+0x26>

1c00a83a <__truncdfsf2>:
1c00a83a:	00202873          	csrr	a6,0x2
1c00a83e:	e6059633          	p.extractu	a2,a1,19,0
1c00a842:	d54598b3          	p.extractu	a7,a1,10,20
1c00a846:	01d55793          	srli	a5,a0,0x1d
1c00a84a:	060e                	slli	a2,a2,0x3
1c00a84c:	8e5d                	or	a2,a2,a5
1c00a84e:	00188793          	addi	a5,a7,1
1c00a852:	e8b7b7b3          	p.bclr	a5,a5,20,11
1c00a856:	4685                	li	a3,1
1c00a858:	81fd                	srli	a1,a1,0x1f
1c00a85a:	00351713          	slli	a4,a0,0x3
1c00a85e:	14f6d663          	ble	a5,a3,1c00a9aa <__truncdfsf2+0x170>
1c00a862:	c8088693          	addi	a3,a7,-896
1c00a866:	0fe00793          	li	a5,254
1c00a86a:	08d7d063          	ble	a3,a5,1c00a8ea <__truncdfsf2+0xb0>
1c00a86e:	02080b63          	beqz	a6,1c00a8a4 <__truncdfsf2+0x6a>
1c00a872:	02383663          	p.bneimm	a6,3,1c00a89e <__truncdfsf2+0x64>
1c00a876:	c59d                	beqz	a1,1c00a8a4 <__truncdfsf2+0x6a>
1c00a878:	57fd                	li	a5,-1
1c00a87a:	0fe00693          	li	a3,254
1c00a87e:	4601                	li	a2,0
1c00a880:	4715                	li	a4,5
1c00a882:	c0074733          	p.bset	a4,a4,0,0
1c00a886:	16282d63          	p.beqimm	a6,2,1c00aa00 <__truncdfsf2+0x1c6>
1c00a88a:	16382863          	p.beqimm	a6,3,1c00a9fa <__truncdfsf2+0x1c0>
1c00a88e:	10081763          	bnez	a6,1c00a99c <__truncdfsf2+0x162>
1c00a892:	f647b533          	p.bclr	a0,a5,27,4
1c00a896:	10452363          	p.beqimm	a0,4,1c00a99c <__truncdfsf2+0x162>
1c00a89a:	0791                	addi	a5,a5,4
1c00a89c:	a201                	j	1c00a99c <__truncdfsf2+0x162>
1c00a89e:	fc283de3          	p.bneimm	a6,2,1c00a878 <__truncdfsf2+0x3e>
1c00a8a2:	d9f9                	beqz	a1,1c00a878 <__truncdfsf2+0x3e>
1c00a8a4:	4781                	li	a5,0
1c00a8a6:	0ff00693          	li	a3,255
1c00a8aa:	4715                	li	a4,5
1c00a8ac:	00579613          	slli	a2,a5,0x5
1c00a8b0:	00065963          	bgez	a2,1c00a8c2 <__truncdfsf2+0x88>
1c00a8b4:	0685                	addi	a3,a3,1
1c00a8b6:	0ff00613          	li	a2,255
1c00a8ba:	14c68563          	beq	a3,a2,1c00aa04 <__truncdfsf2+0x1ca>
1c00a8be:	c1a7b7b3          	p.bclr	a5,a5,0,26
1c00a8c2:	0ff00613          	li	a2,255
1c00a8c6:	838d                	srli	a5,a5,0x3
1c00a8c8:	00c69663          	bne	a3,a2,1c00a8d4 <__truncdfsf2+0x9a>
1c00a8cc:	c781                	beqz	a5,1c00a8d4 <__truncdfsf2+0x9a>
1c00a8ce:	004007b7          	lui	a5,0x400
1c00a8d2:	4581                	li	a1,0
1c00a8d4:	4501                	li	a0,0
1c00a8d6:	ec07a533          	p.insert	a0,a5,22,0
1c00a8da:	cf76a533          	p.insert	a0,a3,7,23
1c00a8de:	c1f5a533          	p.insert	a0,a1,0,31
1c00a8e2:	c319                	beqz	a4,1c00a8e8 <__truncdfsf2+0xae>
1c00a8e4:	00172073          	csrs	0x1,a4
1c00a8e8:	8082                	ret
1c00a8ea:	08d04b63          	bgtz	a3,1c00a980 <__truncdfsf2+0x146>
1c00a8ee:	57a5                	li	a5,-23
1c00a8f0:	0ef6c863          	blt	a3,a5,1c00a9e0 <__truncdfsf2+0x1a6>
1c00a8f4:	4379                	li	t1,30
1c00a8f6:	40d30333          	sub	t1,t1,a3
1c00a8fa:	47fd                	li	a5,31
1c00a8fc:	c1764633          	p.bset	a2,a2,0,23
1c00a900:	0467cc63          	blt	a5,t1,1c00a958 <__truncdfsf2+0x11e>
1c00a904:	c8288893          	addi	a7,a7,-894
1c00a908:	011717b3          	sll	a5,a4,a7
1c00a90c:	00f037b3          	snez	a5,a5
1c00a910:	01161633          	sll	a2,a2,a7
1c00a914:	00675333          	srl	t1,a4,t1
1c00a918:	8fd1                	or	a5,a5,a2
1c00a91a:	00f367b3          	or	a5,t1,a5
1c00a91e:	4681                	li	a3,0
1c00a920:	cbf9                	beqz	a5,1c00a9f6 <__truncdfsf2+0x1bc>
1c00a922:	00179693          	slli	a3,a5,0x1
1c00a926:	f836b633          	p.bclr	a2,a3,28,3
1c00a92a:	4701                	li	a4,0
1c00a92c:	ce11                	beqz	a2,1c00a948 <__truncdfsf2+0x10e>
1c00a92e:	0a282f63          	p.beqimm	a6,2,1c00a9ec <__truncdfsf2+0x1b2>
1c00a932:	0a382963          	p.beqimm	a6,3,1c00a9e4 <__truncdfsf2+0x1aa>
1c00a936:	4705                	li	a4,1
1c00a938:	00081863          	bnez	a6,1c00a948 <__truncdfsf2+0x10e>
1c00a93c:	f646b633          	p.bclr	a2,a3,27,4
1c00a940:	4705                	li	a4,1
1c00a942:	00462363          	p.beqimm	a2,4,1c00a948 <__truncdfsf2+0x10e>
1c00a946:	0691                	addi	a3,a3,4
1c00a948:	01b6d613          	srli	a2,a3,0x1b
1c00a94c:	00164613          	xori	a2,a2,1
1c00a950:	fc163633          	p.bclr	a2,a2,30,1
1c00a954:	4681                	li	a3,0
1c00a956:	a83d                	j	1c00a994 <__truncdfsf2+0x15a>
1c00a958:	57f9                	li	a5,-2
1c00a95a:	40d786b3          	sub	a3,a5,a3
1c00a95e:	02000793          	li	a5,32
1c00a962:	00d656b3          	srl	a3,a2,a3
1c00a966:	4501                	li	a0,0
1c00a968:	00f30663          	beq	t1,a5,1c00a974 <__truncdfsf2+0x13a>
1c00a96c:	ca288893          	addi	a7,a7,-862
1c00a970:	01161533          	sll	a0,a2,a7
1c00a974:	00e567b3          	or	a5,a0,a4
1c00a978:	00f037b3          	snez	a5,a5
1c00a97c:	8fd5                	or	a5,a5,a3
1c00a97e:	b745                	j	1c00a91e <__truncdfsf2+0xe4>
1c00a980:	051a                	slli	a0,a0,0x6
1c00a982:	00a03533          	snez	a0,a0
1c00a986:	060e                	slli	a2,a2,0x3
1c00a988:	01d75793          	srli	a5,a4,0x1d
1c00a98c:	8e49                	or	a2,a2,a0
1c00a98e:	8fd1                	or	a5,a5,a2
1c00a990:	4701                	li	a4,0
1c00a992:	4601                	li	a2,0
1c00a994:	f837b533          	p.bclr	a0,a5,28,3
1c00a998:	ee0515e3          	bnez	a0,1c00a882 <__truncdfsf2+0x48>
1c00a99c:	da01                	beqz	a2,1c00a8ac <__truncdfsf2+0x72>
1c00a99e:	fc173633          	p.bclr	a2,a4,30,1
1c00a9a2:	d609                	beqz	a2,1c00a8ac <__truncdfsf2+0x72>
1c00a9a4:	c0174733          	p.bset	a4,a4,0,1
1c00a9a8:	b711                	j	1c00a8ac <__truncdfsf2+0x72>
1c00a9aa:	00e667b3          	or	a5,a2,a4
1c00a9ae:	00089563          	bnez	a7,1c00a9b8 <__truncdfsf2+0x17e>
1c00a9b2:	00f037b3          	snez	a5,a5
1c00a9b6:	b7a5                	j	1c00a91e <__truncdfsf2+0xe4>
1c00a9b8:	cf8d                	beqz	a5,1c00a9f2 <__truncdfsf2+0x1b8>
1c00a9ba:	7ff00793          	li	a5,2047
1c00a9be:	4701                	li	a4,0
1c00a9c0:	00f89863          	bne	a7,a5,1c00a9d0 <__truncdfsf2+0x196>
1c00a9c4:	00400737          	lui	a4,0x400
1c00a9c8:	8f71                	and	a4,a4,a2
1c00a9ca:	00173713          	seqz	a4,a4
1c00a9ce:	0712                	slli	a4,a4,0x4
1c00a9d0:	00361793          	slli	a5,a2,0x3
1c00a9d4:	c197c7b3          	p.bset	a5,a5,0,25
1c00a9d8:	0ff00693          	li	a3,255
1c00a9dc:	4601                	li	a2,0
1c00a9de:	bf5d                	j	1c00a994 <__truncdfsf2+0x15a>
1c00a9e0:	4785                	li	a5,1
1c00a9e2:	b781                	j	1c00a922 <__truncdfsf2+0xe8>
1c00a9e4:	4705                	li	a4,1
1c00a9e6:	f1ad                	bnez	a1,1c00a948 <__truncdfsf2+0x10e>
1c00a9e8:	06a1                	addi	a3,a3,8
1c00a9ea:	bfb9                	j	1c00a948 <__truncdfsf2+0x10e>
1c00a9ec:	4705                	li	a4,1
1c00a9ee:	dda9                	beqz	a1,1c00a948 <__truncdfsf2+0x10e>
1c00a9f0:	bfe5                	j	1c00a9e8 <__truncdfsf2+0x1ae>
1c00a9f2:	0ff00693          	li	a3,255
1c00a9f6:	4701                	li	a4,0
1c00a9f8:	bd55                	j	1c00a8ac <__truncdfsf2+0x72>
1c00a9fa:	f1cd                	bnez	a1,1c00a99c <__truncdfsf2+0x162>
1c00a9fc:	07a1                	addi	a5,a5,8
1c00a9fe:	bf79                	j	1c00a99c <__truncdfsf2+0x162>
1c00aa00:	ddd1                	beqz	a1,1c00a99c <__truncdfsf2+0x162>
1c00aa02:	bfed                	j	1c00a9fc <__truncdfsf2+0x1c2>
1c00aa04:	4781                	li	a5,0
1c00aa06:	00080c63          	beqz	a6,1c00aa1e <__truncdfsf2+0x1e4>
1c00aa0a:	00383763          	p.bneimm	a6,3,1c00aa18 <__truncdfsf2+0x1de>
1c00aa0e:	c981                	beqz	a1,1c00aa1e <__truncdfsf2+0x1e4>
1c00aa10:	57fd                	li	a5,-1
1c00aa12:	0fe00693          	li	a3,254
1c00aa16:	a021                	j	1c00aa1e <__truncdfsf2+0x1e4>
1c00aa18:	fe283ce3          	p.bneimm	a6,2,1c00aa10 <__truncdfsf2+0x1d6>
1c00aa1c:	d9f5                	beqz	a1,1c00aa10 <__truncdfsf2+0x1d6>
1c00aa1e:	00576713          	ori	a4,a4,5
1c00aa22:	b545                	j	1c00a8c2 <__truncdfsf2+0x88>

1c00aa24 <cluster_entry>:
1c00aa24:	1141                	addi	sp,sp,-16
1c00aa26:	c422                	sw	s0,8(sp)
1c00aa28:	4785                	li	a5,1
1c00aa2a:	00204437          	lui	s0,0x204
1c00aa2e:	c606                	sw	ra,12(sp)
1c00aa30:	08f42223          	sw	a5,132(s0) # 204084 <__l1_heap_size+0x1f81ac>
1c00aa34:	20040793          	addi	a5,s0,512
1c00aa38:	4705                	li	a4,1
1c00aa3a:	00e7a023          	sw	a4,0(a5) # 400000 <__l1_heap_size+0x3f4128>
1c00aa3e:	00e7a623          	sw	a4,12(a5)
1c00aa42:	22040793          	addi	a5,s0,544
1c00aa46:	10100713          	li	a4,257
1c00aa4a:	00e7a023          	sw	a4,0(a5)
1c00aa4e:	00e7a623          	sw	a4,12(a5)
1c00aa52:	1c00b7b7          	lui	a5,0x1c00b
1c00aa56:	12e78793          	addi	a5,a5,302 # 1c00b12e <cluster_fn>
1c00aa5a:	00204737          	lui	a4,0x204
1c00aa5e:	08f72023          	sw	a5,128(a4) # 204080 <__l1_heap_size+0x1f81a8>
1c00aa62:	002047b7          	lui	a5,0x204
1c00aa66:	0807a023          	sw	zero,128(a5) # 204080 <__l1_heap_size+0x1f81a8>
1c00aa6a:	4501                	li	a0,0
1c00aa6c:	25c9                	jal	1c00b12e <cluster_fn>
1c00aa6e:	21c40413          	addi	s0,s0,540
1c00aa72:	401c                	lw	a5,0(s0)
1c00aa74:	40b2                	lw	ra,12(sp)
1c00aa76:	4422                	lw	s0,8(sp)
1c00aa78:	0141                	addi	sp,sp,16
1c00aa7a:	8082                	ret

1c00aa7c <main>:
1c00aa7c:	711d                	addi	sp,sp,-96
1c00aa7e:	4529                	li	a0,10
1c00aa80:	ce86                	sw	ra,92(sp)
1c00aa82:	cca2                	sw	s0,88(sp)
1c00aa84:	403000ef          	jal	ra,1c00b686 <putchar>
1c00aa88:	1c001437          	lui	s0,0x1c001
1c00aa8c:	9e040513          	addi	a0,s0,-1568 # 1c0009e0 <__clz_tab+0x100>
1c00aa90:	385000ef          	jal	ra,1c00b614 <puts>
1c00aa94:	1c001537          	lui	a0,0x1c001
1c00aa98:	9f850513          	addi	a0,a0,-1544 # 1c0009f8 <__clz_tab+0x118>
1c00aa9c:	379000ef          	jal	ra,1c00b614 <puts>
1c00aaa0:	9e040513          	addi	a0,s0,-1568
1c00aaa4:	371000ef          	jal	ra,1c00b614 <puts>
1c00aaa8:	4529                	li	a0,10
1c00aaaa:	3dd000ef          	jal	ra,1c00b686 <putchar>
1c00aaae:	1c00b7b7          	lui	a5,0x1c00b
1c00aab2:	a2478793          	addi	a5,a5,-1500 # 1c00aa24 <cluster_entry>
1c00aab6:	40000713          	li	a4,1024
1c00aaba:	0808                	addi	a0,sp,16
1c00aabc:	d43e                	sw	a5,40(sp)
1c00aabe:	47a1                	li	a5,8
1c00aac0:	de3e                	sw	a5,60(sp)
1c00aac2:	da3a                	sw	a4,52(sp)
1c00aac4:	dc3a                	sw	a4,56(sp)
1c00aac6:	c202                	sw	zero,4(sp)
1c00aac8:	c402                	sw	zero,8(sp)
1c00aaca:	c602                	sw	zero,12(sp)
1c00aacc:	d602                	sw	zero,44(sp)
1c00aace:	d802                	sw	zero,48(sp)
1c00aad0:	c082                	sw	zero,64(sp)
1c00aad2:	c282                	sw	zero,68(sp)
1c00aad4:	c482                	sw	zero,72(sp)
1c00aad6:	c682                	sw	zero,76(sp)
1c00aad8:	49d020ef          	jal	ra,1c00d774 <pi_cluster_conf_init>
1c00aadc:	0048                	addi	a0,sp,4
1c00aade:	080c                	addi	a1,sp,16
1c00aae0:	05b020ef          	jal	ra,1c00d33a <pi_open_from_conf>
1c00aae4:	0048                	addi	a0,sp,4
1c00aae6:	499020ef          	jal	ra,1c00d77e <pi_cluster_open>
1c00aaea:	ed11                	bnez	a0,1c00ab06 <main+0x8a>
1c00aaec:	842a                	mv	s0,a0
1c00aaee:	102c                	addi	a1,sp,40
1c00aaf0:	0048                	addi	a0,sp,4
1c00aaf2:	67b020ef          	jal	ra,1c00d96c <pi_cluster_send_task_to_cl>
1c00aaf6:	0048                	addi	a0,sp,4
1c00aaf8:	5f3020ef          	jal	ra,1c00d8ea <pi_cluster_close>
1c00aafc:	8522                	mv	a0,s0
1c00aafe:	40f6                	lw	ra,92(sp)
1c00ab00:	4466                	lw	s0,88(sp)
1c00ab02:	6125                	addi	sp,sp,96
1c00ab04:	8082                	ret
1c00ab06:	1c001537          	lui	a0,0x1c001
1c00ab0a:	a1050513          	addi	a0,a0,-1520 # 1c000a10 <__clz_tab+0x130>
1c00ab0e:	307000ef          	jal	ra,1c00b614 <puts>
1c00ab12:	547d                	li	s0,-1
1c00ab14:	b7e5                	j	1c00aafc <main+0x80>

1c00ab16 <cpu_perf_get>:
1c00ab16:	14f52563          	p.beqimm	a0,15,1c00ac60 <cpu_perf_get+0x14a>
1c00ab1a:	47bd                	li	a5,15
1c00ab1c:	02a7e463          	bltu	a5,a0,1c00ab44 <cpu_perf_get+0x2e>
1c00ab20:	14752363          	p.beqimm	a0,7,1c00ac66 <cpu_perf_get+0x150>
1c00ab24:	479d                	li	a5,7
1c00ab26:	04a7e163          	bltu	a5,a0,1c00ab68 <cpu_perf_get+0x52>
1c00ab2a:	0e352763          	p.beqimm	a0,3,1c00ac18 <cpu_perf_get+0x102>
1c00ab2e:	478d                	li	a5,3
1c00ab30:	06a7ee63          	bltu	a5,a0,1c00abac <cpu_perf_get+0x96>
1c00ab34:	10152a63          	p.beqimm	a0,1,1c00ac48 <cpu_perf_get+0x132>
1c00ab38:	4785                	li	a5,1
1c00ab3a:	0aa7ea63          	bltu	a5,a0,1c00abee <cpu_perf_get+0xd8>
1c00ab3e:	78002573          	csrr	a0,pccr0
1c00ab42:	8082                	ret
1c00ab44:	47dd                	li	a5,23
1c00ab46:	10f50463          	beq	a0,a5,1c00ac4e <cpu_perf_get+0x138>
1c00ab4a:	02a7ec63          	bltu	a5,a0,1c00ab82 <cpu_perf_get+0x6c>
1c00ab4e:	47cd                	li	a5,19
1c00ab50:	0af50863          	beq	a0,a5,1c00ac00 <cpu_perf_get+0xea>
1c00ab54:	06a7ef63          	bltu	a5,a0,1c00abd2 <cpu_perf_get+0xbc>
1c00ab58:	47c5                	li	a5,17
1c00ab5a:	0ef50163          	beq	a0,a5,1c00ac3c <cpu_perf_get+0x126>
1c00ab5e:	0ca7e063          	bltu	a5,a0,1c00ac1e <cpu_perf_get+0x108>
1c00ab62:	79002573          	csrr	a0,pccr16
1c00ab66:	8082                	ret
1c00ab68:	08b52f63          	p.beqimm	a0,11,1c00ac06 <cpu_perf_get+0xf0>
1c00ab6c:	47ad                	li	a5,11
1c00ab6e:	02a7e763          	bltu	a5,a0,1c00ab9c <cpu_perf_get+0x86>
1c00ab72:	0e952463          	p.beqimm	a0,9,1c00ac5a <cpu_perf_get+0x144>
1c00ab76:	47a5                	li	a5,9
1c00ab78:	06a7e863          	bltu	a5,a0,1c00abe8 <cpu_perf_get+0xd2>
1c00ab7c:	78802573          	csrr	a0,pccr8
1c00ab80:	8082                	ret
1c00ab82:	47ed                	li	a5,27
1c00ab84:	08f50763          	beq	a0,a5,1c00ac12 <cpu_perf_get+0xfc>
1c00ab88:	02a7ea63          	bltu	a5,a0,1c00abbc <cpu_perf_get+0xa6>
1c00ab8c:	47e5                	li	a5,25
1c00ab8e:	0af50463          	beq	a0,a5,1c00ac36 <cpu_perf_get+0x120>
1c00ab92:	06a7e463          	bltu	a5,a0,1c00abfa <cpu_perf_get+0xe4>
1c00ab96:	79802573          	csrr	a0,pccr24
1c00ab9a:	8082                	ret
1c00ab9c:	0ad52c63          	p.beqimm	a0,13,1c00ac54 <cpu_perf_get+0x13e>
1c00aba0:	47b5                	li	a5,13
1c00aba2:	04a7e063          	bltu	a5,a0,1c00abe2 <cpu_perf_get+0xcc>
1c00aba6:	78c02573          	csrr	a0,pccr12
1c00abaa:	8082                	ret
1c00abac:	06552f63          	p.beqimm	a0,5,1c00ac2a <cpu_perf_get+0x114>
1c00abb0:	4795                	li	a5,5
1c00abb2:	04a7e163          	bltu	a5,a0,1c00abf4 <cpu_perf_get+0xde>
1c00abb6:	78402573          	csrr	a0,pccr4
1c00abba:	8082                	ret
1c00abbc:	47f5                	li	a5,29
1c00abbe:	06f50963          	beq	a0,a5,1c00ac30 <cpu_perf_get+0x11a>
1c00abc2:	04f56563          	bltu	a0,a5,1c00ac0c <cpu_perf_get+0xf6>
1c00abc6:	47f9                	li	a5,30
1c00abc8:	0af51263          	bne	a0,a5,1c00ac6c <cpu_perf_get+0x156>
1c00abcc:	79e02573          	csrr	a0,pccr30
1c00abd0:	8082                	ret
1c00abd2:	47d5                	li	a5,21
1c00abd4:	06f50763          	beq	a0,a5,1c00ac42 <cpu_perf_get+0x12c>
1c00abd8:	04a7e663          	bltu	a5,a0,1c00ac24 <cpu_perf_get+0x10e>
1c00abdc:	79402573          	csrr	a0,pccr20
1c00abe0:	8082                	ret
1c00abe2:	78e02573          	csrr	a0,pccr14
1c00abe6:	8082                	ret
1c00abe8:	78a02573          	csrr	a0,pccr10
1c00abec:	8082                	ret
1c00abee:	78202573          	csrr	a0,pccr2
1c00abf2:	8082                	ret
1c00abf4:	78602573          	csrr	a0,pccr6
1c00abf8:	8082                	ret
1c00abfa:	79a02573          	csrr	a0,pccr26
1c00abfe:	8082                	ret
1c00ac00:	79302573          	csrr	a0,pccr19
1c00ac04:	8082                	ret
1c00ac06:	78b02573          	csrr	a0,pccr11
1c00ac0a:	8082                	ret
1c00ac0c:	79c02573          	csrr	a0,pccr28
1c00ac10:	8082                	ret
1c00ac12:	79b02573          	csrr	a0,pccr27
1c00ac16:	8082                	ret
1c00ac18:	78302573          	csrr	a0,pccr3
1c00ac1c:	8082                	ret
1c00ac1e:	79202573          	csrr	a0,pccr18
1c00ac22:	8082                	ret
1c00ac24:	79602573          	csrr	a0,pccr22
1c00ac28:	8082                	ret
1c00ac2a:	78502573          	csrr	a0,pccr5
1c00ac2e:	8082                	ret
1c00ac30:	79d02573          	csrr	a0,pccr29
1c00ac34:	8082                	ret
1c00ac36:	79902573          	csrr	a0,pccr25
1c00ac3a:	8082                	ret
1c00ac3c:	79102573          	csrr	a0,pccr17
1c00ac40:	8082                	ret
1c00ac42:	79502573          	csrr	a0,pccr21
1c00ac46:	8082                	ret
1c00ac48:	78102573          	csrr	a0,pccr1
1c00ac4c:	8082                	ret
1c00ac4e:	79702573          	csrr	a0,pccr23
1c00ac52:	8082                	ret
1c00ac54:	78d02573          	csrr	a0,pccr13
1c00ac58:	8082                	ret
1c00ac5a:	78902573          	csrr	a0,pccr9
1c00ac5e:	8082                	ret
1c00ac60:	78f02573          	csrr	a0,pccr15
1c00ac64:	8082                	ret
1c00ac66:	78702573          	csrr	a0,pccr7
1c00ac6a:	8082                	ret
1c00ac6c:	4501                	li	a0,0
1c00ac6e:	8082                	ret

1c00ac70 <pi_perf_read>:
1c00ac70:	b55d                	j	1c00ab16 <cpu_perf_get>

1c00ac72 <update>:
1c00ac72:	00000693          	li	a3,0
1c00ac76:	100007b7          	lui	a5,0x10000
1c00ac7a:	01c78793          	addi	a5,a5,28 # 1000001c <nlms>
1c00ac7e:	68a57743          	fmadd.s	a4,a0,a0,a3
1c00ac82:	7179                	addi	sp,sp,-48
1c00ac84:	ce52                	sw	s4,28(sp)
1c00ac86:	0407aa03          	lw	s4,64(a5)
1c00ac8a:	d04e                	sw	s3,32(sp)
1c00ac8c:	c06e                	sw	s11,0(sp)
1c00ac8e:	714a7743          	fmadd.s	a4,s4,s4,a4
1c00ac92:	0447a983          	lw	s3,68(a5)
1c00ac96:	0007ad83          	lw	s11,0(a5)
1c00ac9a:	5fb0                	lw	a2,120(a5)
1c00ac9c:	0747a803          	lw	a6,116(a5)
1c00aca0:	0707a883          	lw	a7,112(a5)
1c00aca4:	06c7a303          	lw	t1,108(a5)
1c00aca8:	0687ae03          	lw	t3,104(a5)
1c00acac:	d622                	sw	s0,44(sp)
1c00acae:	d426                	sw	s1,40(sp)
1c00acb0:	d24a                	sw	s2,36(sp)
1c00acb2:	cc56                	sw	s5,24(sp)
1c00acb4:	ca5a                	sw	s6,20(sp)
1c00acb6:	c85e                	sw	s7,16(sp)
1c00acb8:	c662                	sw	s8,12(sp)
1c00acba:	c466                	sw	s9,8(sp)
1c00acbc:	c26a                	sw	s10,4(sp)
1c00acbe:	69b576c3          	fmadd.s	a3,a0,s11,a3
1c00acc2:	7139f743          	fmadd.s	a4,s3,s3,a4
1c00acc6:	dff0                	sw	a2,124(a5)
1c00acc8:	0707ac23          	sw	a6,120(a5)
1c00accc:	0717aa23          	sw	a7,116(a5)
1c00acd0:	0667a823          	sw	t1,112(a5)
1c00acd4:	0647ae83          	lw	t4,100(a5)
1c00acd8:	0607af03          	lw	t5,96(a5)
1c00acdc:	05c7af83          	lw	t6,92(a5)
1c00ace0:	0587a283          	lw	t0,88(a5)
1c00ace4:	0547a383          	lw	t2,84(a5)
1c00ace8:	4ba0                	lw	s0,80(a5)
1c00acea:	47e4                	lw	s1,76(a5)
1c00acec:	0487a903          	lw	s2,72(a5)
1c00acf0:	07c7a623          	sw	t3,108(a5)
1c00acf4:	0047ad03          	lw	s10,4(a5)
1c00acf8:	71297743          	fmadd.s	a4,s2,s2,a4
1c00acfc:	0087ac83          	lw	s9,8(a5)
1c00ad00:	69aa76c3          	fmadd.s	a3,s4,s10,a3
1c00ad04:	00c7aa83          	lw	s5,12(a5)
1c00ad08:	0107ac03          	lw	s8,16(a5)
1c00ad0c:	7094f743          	fmadd.s	a4,s1,s1,a4
1c00ad10:	0247ab83          	lw	s7,36(a5)
1c00ad14:	693cf6c3          	fmadd.s	a3,s9,s3,a3
1c00ad18:	0287ab03          	lw	s6,40(a5)
1c00ad1c:	0527a623          	sw	s2,76(a5)
1c00ad20:	70847743          	fmadd.s	a4,s0,s0,a4
1c00ad24:	0537a423          	sw	s3,72(a5)
1c00ad28:	692af6c3          	fmadd.s	a3,s5,s2,a3
1c00ad2c:	0147aa83          	lw	s5,20(a5)
1c00ad30:	0547a223          	sw	s4,68(a5)
1c00ad34:	7073f743          	fmadd.s	a4,t2,t2,a4
1c00ad38:	c3a8                	sw	a0,64(a5)
1c00ad3a:	689c76c3          	fmadd.s	a3,s8,s1,a3
1c00ad3e:	0187ac03          	lw	s8,24(a5)
1c00ad42:	cba4                	sw	s1,80(a5)
1c00ad44:	7052f743          	fmadd.s	a4,t0,t0,a4
1c00ad48:	cbe0                	sw	s0,84(a5)
1c00ad4a:	688af6c3          	fmadd.s	a3,s5,s0,a3
1c00ad4e:	03c7aa83          	lw	s5,60(a5)
1c00ad52:	0477ac23          	sw	t2,88(a5)
1c00ad56:	71fff743          	fmadd.s	a4,t6,t6,a4
1c00ad5a:	07f7a023          	sw	t6,96(a5)
1c00ad5e:	687c76c3          	fmadd.s	a3,s8,t2,a3
1c00ad62:	01c7ac03          	lw	s8,28(a5)
1c00ad66:	0457ae23          	sw	t0,92(a5)
1c00ad6a:	71ef7743          	fmadd.s	a4,t5,t5,a4
1c00ad6e:	07d7a423          	sw	t4,104(a5)
1c00ad72:	685c76c3          	fmadd.s	a3,s8,t0,a3
1c00ad76:	0207ac03          	lw	s8,32(a5)
1c00ad7a:	07e7a223          	sw	t5,100(a5)
1c00ad7e:	71def743          	fmadd.s	a4,t4,t4,a4
1c00ad82:	69fc76c3          	fmadd.s	a3,s8,t6,a3
1c00ad86:	02c7ac03          	lw	s8,44(a5)
1c00ad8a:	71ce7743          	fmadd.s	a4,t3,t3,a4
1c00ad8e:	69ebf6c3          	fmadd.s	a3,s7,t5,a3
1c00ad92:	70637743          	fmadd.s	a4,t1,t1,a4
1c00ad96:	69db76c3          	fmadd.s	a3,s6,t4,a3
1c00ad9a:	7118f743          	fmadd.s	a4,a7,a7,a4
1c00ad9e:	69cc76c3          	fmadd.s	a3,s8,t3,a3
1c00ada2:	0307ac03          	lw	s8,48(a5)
1c00ada6:	71087743          	fmadd.s	a4,a6,a6,a4
1c00adaa:	686c76c3          	fmadd.s	a3,s8,t1,a3
1c00adae:	0347ac03          	lw	s8,52(a5)
1c00adb2:	70c67743          	fmadd.s	a4,a2,a2,a4
1c00adb6:	691c76c3          	fmadd.s	a3,s8,a7,a3
1c00adba:	0387ac03          	lw	s8,56(a5)
1c00adbe:	18e57553          	fdiv.s	a0,a0,a4
1c00adc2:	690c76c3          	fmadd.s	a3,s8,a6,a3
1c00adc6:	00c7ac03          	lw	s8,12(a5)
1c00adca:	68caf6c3          	fmadd.s	a3,s5,a2,a3
1c00adce:	08d5f5d3          	fsub.s	a1,a1,a3
1c00add2:	1c0016b7          	lui	a3,0x1c001
1c00add6:	b586a683          	lw	a3,-1192(a3) # 1c000b58 <__clz_tab+0x278>
1c00adda:	10d5f6d3          	fmul.s	a3,a1,a3
1c00adde:	18ea7a53          	fdiv.s	s4,s4,a4
1c00ade2:	d8a6f543          	fmadd.s	a0,a3,a0,s11
1c00ade6:	c388                	sw	a0,0(a5)
1c00ade8:	18e9f9d3          	fdiv.s	s3,s3,a4
1c00adec:	d146fa43          	fmadd.s	s4,a3,s4,s10
1c00adf0:	0147a223          	sw	s4,4(a5)
1c00adf4:	18e97953          	fdiv.s	s2,s2,a4
1c00adf8:	c936f9c3          	fmadd.s	s3,a3,s3,s9
1c00adfc:	0137a423          	sw	s3,8(a5)
1c00ae00:	18e4f4d3          	fdiv.s	s1,s1,a4
1c00ae04:	c126f943          	fmadd.s	s2,a3,s2,s8
1c00ae08:	0127a623          	sw	s2,12(a5)
1c00ae0c:	0107ac03          	lw	s8,16(a5)
1c00ae10:	538c                	lw	a1,32(a5)
1c00ae12:	5912                	lw	s2,36(sp)
1c00ae14:	5982                	lw	s3,32(sp)
1c00ae16:	4a72                	lw	s4,28(sp)
1c00ae18:	4ca2                	lw	s9,8(sp)
1c00ae1a:	4d12                	lw	s10,4(sp)
1c00ae1c:	18e47453          	fdiv.s	s0,s0,a4
1c00ae20:	c096f4c3          	fmadd.s	s1,a3,s1,s8
1c00ae24:	0147ac03          	lw	s8,20(a5)
1c00ae28:	cb84                	sw	s1,16(a5)
1c00ae2a:	54a2                	lw	s1,40(sp)
1c00ae2c:	18e3f3d3          	fdiv.s	t2,t2,a4
1c00ae30:	c086f443          	fmadd.s	s0,a3,s0,s8
1c00ae34:	0187ac03          	lw	s8,24(a5)
1c00ae38:	cbc0                	sw	s0,20(a5)
1c00ae3a:	5432                	lw	s0,44(sp)
1c00ae3c:	18e2f2d3          	fdiv.s	t0,t0,a4
1c00ae40:	c076f3c3          	fmadd.s	t2,a3,t2,s8
1c00ae44:	01c7ac03          	lw	s8,28(a5)
1c00ae48:	0077ac23          	sw	t2,24(a5)
1c00ae4c:	18efffd3          	fdiv.s	t6,t6,a4
1c00ae50:	c056f2c3          	fmadd.s	t0,a3,t0,s8
1c00ae54:	0057ae23          	sw	t0,28(a5)
1c00ae58:	18ee7e53          	fdiv.s	t3,t3,a4
1c00ae5c:	59f6fc43          	fmadd.s	s8,a3,t6,a1
1c00ae60:	0387a023          	sw	s8,32(a5)
1c00ae64:	02c7ac03          	lw	s8,44(a5)
1c00ae68:	18e37353          	fdiv.s	t1,t1,a4
1c00ae6c:	c1c6fe43          	fmadd.s	t3,a3,t3,s8
1c00ae70:	0307ac03          	lw	s8,48(a5)
1c00ae74:	03c7a623          	sw	t3,44(a5)
1c00ae78:	18ef7f53          	fdiv.s	t5,t5,a4
1c00ae7c:	c066f343          	fmadd.s	t1,a3,t1,s8
1c00ae80:	0347ac03          	lw	s8,52(a5)
1c00ae84:	0267a823          	sw	t1,48(a5)
1c00ae88:	18eefed3          	fdiv.s	t4,t4,a4
1c00ae8c:	b9e6fbc3          	fmadd.s	s7,a3,t5,s7
1c00ae90:	0377a223          	sw	s7,36(a5)
1c00ae94:	4bc2                	lw	s7,16(sp)
1c00ae96:	18e8f8d3          	fdiv.s	a7,a7,a4
1c00ae9a:	b1d6fb43          	fmadd.s	s6,a3,t4,s6
1c00ae9e:	0367a423          	sw	s6,40(a5)
1c00aea2:	4b52                	lw	s6,20(sp)
1c00aea4:	18e87853          	fdiv.s	a6,a6,a4
1c00aea8:	c116f8c3          	fmadd.s	a7,a3,a7,s8
1c00aeac:	4c32                	lw	s8,12(sp)
1c00aeae:	0317aa23          	sw	a7,52(a5)
1c00aeb2:	18e67753          	fdiv.s	a4,a2,a4
1c00aeb6:	5f90                	lw	a2,56(a5)
1c00aeb8:	6106f843          	fmadd.s	a6,a3,a6,a2
1c00aebc:	0307ac23          	sw	a6,56(a5)
1c00aec0:	a8d776c3          	fmadd.s	a3,a4,a3,s5
1c00aec4:	4ae2                	lw	s5,24(sp)
1c00aec6:	dfd4                	sw	a3,60(a5)
1c00aec8:	4d82                	lw	s11,0(sp)
1c00aeca:	6145                	addi	sp,sp,48
1c00aecc:	8082                	ret

1c00aece <adaptive_filters_nlms>:
1c00aece:	1141                	addi	sp,sp,-16
1c00aed0:	c422                	sw	s0,8(sp)
1c00aed2:	c04a                	sw	s2,0(sp)
1c00aed4:	10000437          	lui	s0,0x10000
1c00aed8:	10002937          	lui	s2,0x10002
1c00aedc:	c226                	sw	s1,4(sp)
1c00aede:	c606                	sw	ra,12(sp)
1c00aee0:	0e090493          	addi	s1,s2,224 # 100020e0 <input_data+0x2040>
1c00aee4:	0e040413          	addi	s0,s0,224 # 100000e0 <input_data+0x40>
1c00aee8:	0e090913          	addi	s2,s2,224
1c00aeec:	0044250b          	p.lw	a0,4(s0!)
1c00aef0:	0044a58b          	p.lw	a1,4(s1!) # 10004 <__l1_heap_size+0x412c>
1c00aef4:	3bbd                	jal	1c00ac72 <update>
1c00aef6:	ff241be3          	bne	s0,s2,1c00aeec <adaptive_filters_nlms+0x1e>
1c00aefa:	40b2                	lw	ra,12(sp)
1c00aefc:	4422                	lw	s0,8(sp)
1c00aefe:	4492                	lw	s1,4(sp)
1c00af00:	4902                	lw	s2,0(sp)
1c00af02:	0141                	addi	sp,sp,16
1c00af04:	8082                	ret

1c00af06 <init>:
1c00af06:	1c0037b7          	lui	a5,0x1c003
1c00af0a:	48078793          	addi	a5,a5,1152 # 1c003480 <w_L2>
1c00af0e:	1101                	addi	sp,sp,-32
1c00af10:	ce06                	sw	ra,28(sp)
1c00af12:	c84a                	sw	s2,16(sp)
1c00af14:	0047a083          	lw	ra,4(a5)
1c00af18:	0087a383          	lw	t2,8(a5)
1c00af1c:	00c7a283          	lw	t0,12(a5)
1c00af20:	0107af83          	lw	t6,16(a5)
1c00af24:	0147af03          	lw	t5,20(a5)
1c00af28:	0187ae83          	lw	t4,24(a5)
1c00af2c:	01c7ae03          	lw	t3,28(a5)
1c00af30:	0207a303          	lw	t1,32(a5)
1c00af34:	0007a903          	lw	s2,0(a5)
1c00af38:	ca26                	sw	s1,20(sp)
1c00af3a:	0247a883          	lw	a7,36(a5)
1c00af3e:	100004b7          	lui	s1,0x10000
1c00af42:	cc22                	sw	s0,24(sp)
1c00af44:	c64e                	sw	s3,12(sp)
1c00af46:	0a048413          	addi	s0,s1,160 # 100000a0 <input_data>
1c00af4a:	c452                	sw	s4,8(sp)
1c00af4c:	c256                	sw	s5,4(sp)
1c00af4e:	0287a803          	lw	a6,40(a5)
1c00af52:	57c8                	lw	a0,44(a5)
1c00af54:	5b8c                	lw	a1,48(a5)
1c00af56:	5bd0                	lw	a2,52(a5)
1c00af58:	5f94                	lw	a3,56(a5)
1c00af5a:	5fd8                	lw	a4,60(a5)
1c00af5c:	1c0017b7          	lui	a5,0x1c001
1c00af60:	44078793          	addi	a5,a5,1088 # 1c001440 <filter_w_check_L2>
1c00af64:	0b24a023          	sw	s2,160(s1)
1c00af68:	00142223          	sw	ra,4(s0)
1c00af6c:	00742423          	sw	t2,8(s0)
1c00af70:	00542623          	sw	t0,12(s0)
1c00af74:	01f42823          	sw	t6,16(s0)
1c00af78:	01e42a23          	sw	t5,20(s0)
1c00af7c:	01d42c23          	sw	t4,24(s0)
1c00af80:	01c42e23          	sw	t3,28(s0)
1c00af84:	02642023          	sw	t1,32(s0)
1c00af88:	03142223          	sw	a7,36(s0)
1c00af8c:	0047a083          	lw	ra,4(a5)
1c00af90:	0087a383          	lw	t2,8(a5)
1c00af94:	00c7a283          	lw	t0,12(a5)
1c00af98:	0107af83          	lw	t6,16(a5)
1c00af9c:	0147af03          	lw	t5,20(a5)
1c00afa0:	0187ae83          	lw	t4,24(a5)
1c00afa4:	01c7ae03          	lw	t3,28(a5)
1c00afa8:	0207a303          	lw	t1,32(a5)
1c00afac:	0247a883          	lw	a7,36(a5)
1c00afb0:	0007a903          	lw	s2,0(a5)
1c00afb4:	03042423          	sw	a6,40(s0)
1c00afb8:	d448                	sw	a0,44(s0)
1c00afba:	d80c                	sw	a1,48(s0)
1c00afbc:	57c8                	lw	a0,44(a5)
1c00afbe:	5b8c                	lw	a1,48(a5)
1c00afc0:	d850                	sw	a2,52(s0)
1c00afc2:	dc14                	sw	a3,56(s0)
1c00afc4:	5bd0                	lw	a2,52(a5)
1c00afc6:	5f94                	lw	a3,56(a5)
1c00afc8:	dc58                	sw	a4,60(s0)
1c00afca:	0287a803          	lw	a6,40(a5)
1c00afce:	5fd8                	lw	a4,60(a5)
1c00afd0:	6791                	lui	a5,0x4
1c00afd2:	97a2                	add	a5,a5,s0
1c00afd4:	0527a023          	sw	s2,64(a5) # 4040 <pos_soc_event_callback+0x3bf8>
1c00afd8:	0417a223          	sw	ra,68(a5)
1c00afdc:	0477a423          	sw	t2,72(a5)
1c00afe0:	0457a623          	sw	t0,76(a5)
1c00afe4:	05f7a823          	sw	t6,80(a5)
1c00afe8:	05e7aa23          	sw	t5,84(a5)
1c00afec:	05d7ac23          	sw	t4,88(a5)
1c00aff0:	05c7ae23          	sw	t3,92(a5)
1c00aff4:	0667a023          	sw	t1,96(a5)
1c00aff8:	0717a223          	sw	a7,100(a5)
1c00affc:	0707a423          	sw	a6,104(a5)
1c00b000:	dbac                	sw	a1,112(a5)
1c00b002:	dbf0                	sw	a2,116(a5)
1c00b004:	dfb4                	sw	a3,120(a5)
1c00b006:	dff8                	sw	a4,124(a5)
1c00b008:	d7e8                	sw	a0,108(a5)
1c00b00a:	1c0035b7          	lui	a1,0x1c003
1c00b00e:	10000637          	lui	a2,0x10000
1c00b012:	1c0016b7          	lui	a3,0x1c001
1c00b016:	10002737          	lui	a4,0x10002
1c00b01a:	6785                	lui	a5,0x1
1c00b01c:	4c058593          	addi	a1,a1,1216 # 1c0034c0 <x_L2>
1c00b020:	0e060613          	addi	a2,a2,224 # 100000e0 <input_data+0x40>
1c00b024:	48068693          	addi	a3,a3,1152 # 1c001480 <input_L2>
1c00b028:	0e070713          	addi	a4,a4,224 # 100020e0 <input_data+0x2040>
1c00b02c:	80078793          	addi	a5,a5,-2048 # 800 <pos_soc_event_callback+0x3b8>
1c00b030:	0087c0fb          	lp.setup	x1,a5,1c00b040 <init+0x13a>
1c00b034:	0045a80b          	p.lw	a6,4(a1!)
1c00b038:	0046a50b          	p.lw	a0,4(a3!)
1c00b03c:	0106222b          	p.sw	a6,4(a2!)
1c00b040:	00a7222b          	p.sw	a0,4(a4!)
1c00b044:	45c1                	li	a1,16
1c00b046:	0a048513          	addi	a0,s1,160
1c00b04a:	2ed1                	jal	1c00b41e <norm_L2>
1c00b04c:	87aa                	mv	a5,a0
1c00b04e:	00442a03          	lw	s4,4(s0)
1c00b052:	0a04aa83          	lw	s5,160(s1)
1c00b056:	5c58                	lw	a4,60(s0)
1c00b058:	18fa7a53          	fdiv.s	s4,s4,a5
1c00b05c:	00842083          	lw	ra,8(s0)
1c00b060:	01042383          	lw	t2,16(s0)
1c00b064:	01442283          	lw	t0,20(s0)
1c00b068:	01842f83          	lw	t6,24(s0)
1c00b06c:	01c42f03          	lw	t5,28(s0)
1c00b070:	02042e83          	lw	t4,32(s0)
1c00b074:	02442e03          	lw	t3,36(s0)
1c00b078:	02842303          	lw	t1,40(s0)
1c00b07c:	02c42883          	lw	a7,44(s0)
1c00b080:	03042803          	lw	a6,48(s0)
1c00b084:	5850                	lw	a2,52(s0)
1c00b086:	5c14                	lw	a3,56(s0)
1c00b088:	100009b7          	lui	s3,0x10000
1c00b08c:	01c98913          	addi	s2,s3,28 # 1000001c <nlms>
1c00b090:	45c1                	li	a1,16
1c00b092:	18aafad3          	fdiv.s	s5,s5,a0
1c00b096:	01442223          	sw	s4,4(s0)
1c00b09a:	00c42a03          	lw	s4,12(s0)
1c00b09e:	04090513          	addi	a0,s2,64
1c00b0a2:	18f0f0d3          	fdiv.s	ra,ra,a5
1c00b0a6:	0b54a023          	sw	s5,160(s1)
1c00b0aa:	18f3f3d3          	fdiv.s	t2,t2,a5
1c00b0ae:	00142423          	sw	ra,8(s0)
1c00b0b2:	18fa74d3          	fdiv.s	s1,s4,a5
1c00b0b6:	00742823          	sw	t2,16(s0)
1c00b0ba:	18f2f2d3          	fdiv.s	t0,t0,a5
1c00b0be:	c444                	sw	s1,12(s0)
1c00b0c0:	18ffffd3          	fdiv.s	t6,t6,a5
1c00b0c4:	00542a23          	sw	t0,20(s0)
1c00b0c8:	18ff7f53          	fdiv.s	t5,t5,a5
1c00b0cc:	01f42c23          	sw	t6,24(s0)
1c00b0d0:	18fefed3          	fdiv.s	t4,t4,a5
1c00b0d4:	01e42e23          	sw	t5,28(s0)
1c00b0d8:	18fe7e53          	fdiv.s	t3,t3,a5
1c00b0dc:	03d42023          	sw	t4,32(s0)
1c00b0e0:	18f37353          	fdiv.s	t1,t1,a5
1c00b0e4:	03c42223          	sw	t3,36(s0)
1c00b0e8:	18f8f8d3          	fdiv.s	a7,a7,a5
1c00b0ec:	02642423          	sw	t1,40(s0)
1c00b0f0:	18f87853          	fdiv.s	a6,a6,a5
1c00b0f4:	03142623          	sw	a7,44(s0)
1c00b0f8:	18f67653          	fdiv.s	a2,a2,a5
1c00b0fc:	03042823          	sw	a6,48(s0)
1c00b100:	18f6f6d3          	fdiv.s	a3,a3,a5
1c00b104:	d850                	sw	a2,52(s0)
1c00b106:	18f777d3          	fdiv.s	a5,a4,a5
1c00b10a:	dc14                	sw	a3,56(s0)
1c00b10c:	dc5c                	sw	a5,60(s0)
1c00b10e:	2689                	jal	1c00b450 <zeros>
1c00b110:	01c98513          	addi	a0,s3,28
1c00b114:	45c1                	li	a1,16
1c00b116:	2e2d                	jal	1c00b450 <zeros>
1c00b118:	40f2                	lw	ra,28(sp)
1c00b11a:	4462                	lw	s0,24(sp)
1c00b11c:	08092023          	sw	zero,128(s2)
1c00b120:	44d2                	lw	s1,20(sp)
1c00b122:	4942                	lw	s2,16(sp)
1c00b124:	49b2                	lw	s3,12(sp)
1c00b126:	4a22                	lw	s4,8(sp)
1c00b128:	4a92                	lw	s5,4(sp)
1c00b12a:	6105                	addi	sp,sp,32
1c00b12c:	8082                	ret

1c00b12e <cluster_fn>:
1c00b12e:	7179                	addi	sp,sp,-48
1c00b130:	000317b7          	lui	a5,0x31
1c00b134:	d606                	sw	ra,44(sp)
1c00b136:	d422                	sw	s0,40(sp)
1c00b138:	d226                	sw	s1,36(sp)
1c00b13a:	d04a                	sw	s2,32(sp)
1c00b13c:	ce4e                	sw	s3,28(sp)
1c00b13e:	cc52                	sw	s4,24(sp)
1c00b140:	ca56                	sw	s5,20(sp)
1c00b142:	c85a                	sw	s6,16(sp)
1c00b144:	c65e                	sw	s7,12(sp)
1c00b146:	07dd                	addi	a5,a5,23
1c00b148:	cc079073          	csrw	0xcc0,a5
1c00b14c:	f1402473          	csrr	s0,mhartid
1c00b150:	3b5d                	jal	1c00af06 <init>
1c00b152:	47fd                	li	a5,31
1c00b154:	ca541733          	p.extractu	a4,s0,5,5
1c00b158:	10f70763          	beq	a4,a5,1c00b266 <cluster_fn+0x138>
1c00b15c:	102007b7          	lui	a5,0x10200
1c00b160:	4705                	li	a4,1
1c00b162:	40078793          	addi	a5,a5,1024 # 10200400 <__l1_end+0x1fc2d8>
1c00b166:	02e7a023          	sw	a4,32(a5)
1c00b16a:	4781                	li	a5,0
1c00b16c:	79f79073          	csrw	pccr31,a5
1c00b170:	ca5417b3          	p.extractu	a5,s0,5,5
1c00b174:	477d                	li	a4,31
1c00b176:	10e78963          	beq	a5,a4,1c00b288 <cluster_fn+0x15a>
1c00b17a:	102007b7          	lui	a5,0x10200
1c00b17e:	4705                	li	a4,1
1c00b180:	40078793          	addi	a5,a5,1024 # 10200400 <__l1_end+0x1fc2d8>
1c00b184:	00e7ac23          	sw	a4,24(a5)
1c00b188:	478d                	li	a5,3
1c00b18a:	cc179073          	csrw	0xcc1,a5
1c00b18e:	3381                	jal	1c00aece <adaptive_filters_nlms>
1c00b190:	ca5417b3          	p.extractu	a5,s0,5,5
1c00b194:	477d                	li	a4,31
1c00b196:	0ee78163          	beq	a5,a4,1c00b278 <cluster_fn+0x14a>
1c00b19a:	102007b7          	lui	a5,0x10200
1c00b19e:	40078793          	addi	a5,a5,1024 # 10200400 <__l1_end+0x1fc2d8>
1c00b1a2:	0007a023          	sw	zero,0(a5)
1c00b1a6:	4781                	li	a5,0
1c00b1a8:	cc179073          	csrw	0xcc1,a5
1c00b1ac:	ca541433          	p.extractu	s0,s0,5,5
1c00b1b0:	47fd                	li	a5,31
1c00b1b2:	12f40c63          	beq	s0,a5,1c00b2ea <cluster_fn+0x1bc>
1c00b1b6:	102004b7          	lui	s1,0x10200
1c00b1ba:	40048493          	addi	s1,s1,1024 # 10200400 <__l1_end+0x1fc2d8>
1c00b1be:	0084a483          	lw	s1,8(s1)
1c00b1c2:	4505                	li	a0,1
1c00b1c4:	3475                	jal	1c00ac70 <pi_perf_read>
1c00b1c6:	8baa                	mv	s7,a0
1c00b1c8:	4501                	li	a0,0
1c00b1ca:	345d                	jal	1c00ac70 <pi_perf_read>
1c00b1cc:	8b2a                	mv	s6,a0
1c00b1ce:	4531                	li	a0,12
1c00b1d0:	3445                	jal	1c00ac70 <pi_perf_read>
1c00b1d2:	8aaa                	mv	s5,a0
1c00b1d4:	4541                	li	a0,16
1c00b1d6:	3c69                	jal	1c00ac70 <pi_perf_read>
1c00b1d8:	8a2a                	mv	s4,a0
1c00b1da:	4509                	li	a0,2
1c00b1dc:	3c51                	jal	1c00ac70 <pi_perf_read>
1c00b1de:	89aa                	mv	s3,a0
1c00b1e0:	4511                	li	a0,4
1c00b1e2:	3479                	jal	1c00ac70 <pi_perf_read>
1c00b1e4:	892a                	mv	s2,a0
1c00b1e6:	f1402473          	csrr	s0,mhartid
1c00b1ea:	1c001537          	lui	a0,0x1c001
1c00b1ee:	f4543433          	p.bclr	s0,s0,26,5
1c00b1f2:	8626                	mv	a2,s1
1c00b1f4:	85a2                	mv	a1,s0
1c00b1f6:	a2c50513          	addi	a0,a0,-1492 # 1c000a2c <__clz_tab+0x14c>
1c00b1fa:	21e5                	jal	1c00b6e2 <printf>
1c00b1fc:	1c001537          	lui	a0,0x1c001
1c00b200:	865e                	mv	a2,s7
1c00b202:	85a2                	mv	a1,s0
1c00b204:	a4850513          	addi	a0,a0,-1464 # 1c000a48 <__clz_tab+0x168>
1c00b208:	29e9                	jal	1c00b6e2 <printf>
1c00b20a:	1c001537          	lui	a0,0x1c001
1c00b20e:	865a                	mv	a2,s6
1c00b210:	85a2                	mv	a1,s0
1c00b212:	a6450513          	addi	a0,a0,-1436 # 1c000a64 <__clz_tab+0x184>
1c00b216:	21f1                	jal	1c00b6e2 <printf>
1c00b218:	1c001537          	lui	a0,0x1c001
1c00b21c:	8656                	mv	a2,s5
1c00b21e:	85a2                	mv	a1,s0
1c00b220:	a8050513          	addi	a0,a0,-1408 # 1c000a80 <__clz_tab+0x1a0>
1c00b224:	297d                	jal	1c00b6e2 <printf>
1c00b226:	1c001537          	lui	a0,0x1c001
1c00b22a:	8652                	mv	a2,s4
1c00b22c:	85a2                	mv	a1,s0
1c00b22e:	aa850513          	addi	a0,a0,-1368 # 1c000aa8 <__clz_tab+0x1c8>
1c00b232:	2945                	jal	1c00b6e2 <printf>
1c00b234:	1c001537          	lui	a0,0x1c001
1c00b238:	864e                	mv	a2,s3
1c00b23a:	85a2                	mv	a1,s0
1c00b23c:	ac050513          	addi	a0,a0,-1344 # 1c000ac0 <__clz_tab+0x1e0>
1c00b240:	214d                	jal	1c00b6e2 <printf>
1c00b242:	1c001537          	lui	a0,0x1c001
1c00b246:	864a                	mv	a2,s2
1c00b248:	85a2                	mv	a1,s0
1c00b24a:	ad850513          	addi	a0,a0,-1320 # 1c000ad8 <__clz_tab+0x1f8>
1c00b24e:	2951                	jal	1c00b6e2 <printf>
1c00b250:	c429                	beqz	s0,1c00b29a <cluster_fn+0x16c>
1c00b252:	002047b7          	lui	a5,0x204
1c00b256:	21c7a783          	lw	a5,540(a5) # 20421c <__l1_heap_size+0x1f8344>
1c00b25a:	1c0057b7          	lui	a5,0x1c005
1c00b25e:	4501                	li	a0,0
1c00b260:	4c07a623          	sw	zero,1228(a5) # 1c0054cc <pos_kernel_pmsis_exit_value>
1c00b264:	21a9                	jal	1c00b6ae <exit>
1c00b266:	4785                	li	a5,1
1c00b268:	1a10b737          	lui	a4,0x1a10b
1c00b26c:	02f72023          	sw	a5,32(a4) # 1a10b020 <__l1_end+0xa106ef8>
1c00b270:	4781                	li	a5,0
1c00b272:	79f79073          	csrw	pccr31,a5
1c00b276:	bded                	j	1c00b170 <cluster_fn+0x42>
1c00b278:	1a10b7b7          	lui	a5,0x1a10b
1c00b27c:	0007a023          	sw	zero,0(a5) # 1a10b000 <__l1_end+0xa106ed8>
1c00b280:	4781                	li	a5,0
1c00b282:	cc179073          	csrw	0xcc1,a5
1c00b286:	b71d                	j	1c00b1ac <cluster_fn+0x7e>
1c00b288:	4785                	li	a5,1
1c00b28a:	1a10b737          	lui	a4,0x1a10b
1c00b28e:	00f72c23          	sw	a5,24(a4) # 1a10b018 <__l1_end+0xa106ef0>
1c00b292:	478d                	li	a5,3
1c00b294:	cc179073          	csrw	0xcc1,a5
1c00b298:	bddd                	j	1c00b18e <cluster_fn+0x60>
1c00b29a:	1c001537          	lui	a0,0x1c001
1c00b29e:	af050513          	addi	a0,a0,-1296 # 1c000af0 <__clz_tab+0x210>
1c00b2a2:	2e8d                	jal	1c00b614 <puts>
1c00b2a4:	10000437          	lui	s0,0x10000
1c00b2a8:	45c1                	li	a1,16
1c00b2aa:	01c40513          	addi	a0,s0,28 # 1000001c <nlms>
1c00b2ae:	2209                	jal	1c00b3b0 <print_array>
1c00b2b0:	1c001537          	lui	a0,0x1c001
1c00b2b4:	b0050513          	addi	a0,a0,-1280 # 1c000b00 <__clz_tab+0x220>
1c00b2b8:	2eb1                	jal	1c00b614 <puts>
1c00b2ba:	100044b7          	lui	s1,0x10004
1c00b2be:	45c1                	li	a1,16
1c00b2c0:	0e048513          	addi	a0,s1,224 # 100040e0 <input_data+0x4040>
1c00b2c4:	20f5                	jal	1c00b3b0 <print_array>
1c00b2c6:	4641                	li	a2,16
1c00b2c8:	0e048593          	addi	a1,s1,224
1c00b2cc:	01c40513          	addi	a0,s0,28
1c00b2d0:	2015                	jal	1c00b2f4 <check>
1c00b2d2:	f8a050e3          	blez	a0,1c00b252 <cluster_fn+0x124>
1c00b2d6:	85aa                	mv	a1,a0
1c00b2d8:	6609                	lui	a2,0x2
1c00b2da:	1c001537          	lui	a0,0x1c001
1c00b2de:	71060613          	addi	a2,a2,1808 # 2710 <pos_soc_event_callback+0x22c8>
1c00b2e2:	b1850513          	addi	a0,a0,-1256 # 1c000b18 <__clz_tab+0x238>
1c00b2e6:	2ef5                	jal	1c00b6e2 <printf>
1c00b2e8:	b7ad                	j	1c00b252 <cluster_fn+0x124>
1c00b2ea:	1a10b4b7          	lui	s1,0x1a10b
1c00b2ee:	0084a483          	lw	s1,8(s1) # 1a10b008 <__l1_end+0xa106ee0>
1c00b2f2:	bdc1                	j	1c00b1c2 <cluster_fn+0x94>

1c00b2f4 <check>:
1c00b2f4:	7179                	addi	sp,sp,-48
1c00b2f6:	d606                	sw	ra,44(sp)
1c00b2f8:	d422                	sw	s0,40(sp)
1c00b2fa:	d226                	sw	s1,36(sp)
1c00b2fc:	d04a                	sw	s2,32(sp)
1c00b2fe:	ce4e                	sw	s3,28(sp)
1c00b300:	cc52                	sw	s4,24(sp)
1c00b302:	ca56                	sw	s5,20(sp)
1c00b304:	c85a                	sw	s6,16(sp)
1c00b306:	c65e                	sw	s7,12(sp)
1c00b308:	c462                	sw	s8,8(sp)
1c00b30a:	c266                	sw	s9,4(sp)
1c00b30c:	c06a                	sw	s10,0(sp)
1c00b30e:	08c05f63          	blez	a2,1c00b3ac <check+0xb8>
1c00b312:	1c0017b7          	lui	a5,0x1c001
1c00b316:	00261a93          	slli	s5,a2,0x2
1c00b31a:	b5c7ac03          	lw	s8,-1188(a5) # 1c000b5c <__clz_tab+0x27c>
1c00b31e:	842a                	mv	s0,a0
1c00b320:	84ae                	mv	s1,a1
1c00b322:	9aaa                	add	s5,s5,a0
1c00b324:	4901                	li	s2,0
1c00b326:	4c81                	li	s9,0
1c00b328:	1c001d37          	lui	s10,0x1c001
1c00b32c:	a021                	j	1c00b334 <check+0x40>
1c00b32e:	0905                	addi	s2,s2,1
1c00b330:	048a8f63          	beq	s5,s0,1c00b38e <check+0x9a>
1c00b334:	0044298b          	p.lw	s3,4(s0!)
1c00b338:	1189f553          	fmul.s	a0,s3,s8
1c00b33c:	c5aff0ef          	jal	ra,1c00a796 <__extendsfdf2>
1c00b340:	d5dfc0ef          	jal	ra,1c00809c <round>
1c00b344:	0044aa0b          	p.lw	s4,4(s1!)
1c00b348:	8b2a                	mv	s6,a0
1c00b34a:	8bae                	mv	s7,a1
1c00b34c:	118a7553          	fmul.s	a0,s4,s8
1c00b350:	c46ff0ef          	jal	ra,1c00a796 <__extendsfdf2>
1c00b354:	d49fc0ef          	jal	ra,1c00809c <round>
1c00b358:	862a                	mv	a2,a0
1c00b35a:	86ae                	mv	a3,a1
1c00b35c:	855a                	mv	a0,s6
1c00b35e:	85de                	mv	a1,s7
1c00b360:	cc2fe0ef          	jal	ra,1c009822 <__eqdf2>
1c00b364:	d569                	beqz	a0,1c00b32e <check+0x3a>
1c00b366:	8552                	mv	a0,s4
1c00b368:	0c85                	addi	s9,s9,1
1c00b36a:	c2cff0ef          	jal	ra,1c00a796 <__extendsfdf2>
1c00b36e:	8b2a                	mv	s6,a0
1c00b370:	854e                	mv	a0,s3
1c00b372:	8bae                	mv	s7,a1
1c00b374:	c22ff0ef          	jal	ra,1c00a796 <__extendsfdf2>
1c00b378:	862a                	mv	a2,a0
1c00b37a:	86ae                	mv	a3,a1
1c00b37c:	875a                	mv	a4,s6
1c00b37e:	85ca                	mv	a1,s2
1c00b380:	87de                	mv	a5,s7
1c00b382:	b60d0513          	addi	a0,s10,-1184 # 1c000b60 <__clz_tab+0x280>
1c00b386:	2eb1                	jal	1c00b6e2 <printf>
1c00b388:	0905                	addi	s2,s2,1
1c00b38a:	fa8a95e3          	bne	s5,s0,1c00b334 <check+0x40>
1c00b38e:	50b2                	lw	ra,44(sp)
1c00b390:	5422                	lw	s0,40(sp)
1c00b392:	8566                	mv	a0,s9
1c00b394:	5492                	lw	s1,36(sp)
1c00b396:	5902                	lw	s2,32(sp)
1c00b398:	49f2                	lw	s3,28(sp)
1c00b39a:	4a62                	lw	s4,24(sp)
1c00b39c:	4ad2                	lw	s5,20(sp)
1c00b39e:	4b42                	lw	s6,16(sp)
1c00b3a0:	4bb2                	lw	s7,12(sp)
1c00b3a2:	4c22                	lw	s8,8(sp)
1c00b3a4:	4c92                	lw	s9,4(sp)
1c00b3a6:	4d02                	lw	s10,0(sp)
1c00b3a8:	6145                	addi	sp,sp,48
1c00b3aa:	8082                	ret
1c00b3ac:	4c81                	li	s9,0
1c00b3ae:	b7c5                	j	1c00b38e <check+0x9a>

1c00b3b0 <print_array>:
1c00b3b0:	1101                	addi	sp,sp,-32
1c00b3b2:	c452                	sw	s4,8(sp)
1c00b3b4:	8a2a                	mv	s4,a0
1c00b3b6:	05b00513          	li	a0,91
1c00b3ba:	c84a                	sw	s2,16(sp)
1c00b3bc:	ce06                	sw	ra,28(sp)
1c00b3be:	cc22                	sw	s0,24(sp)
1c00b3c0:	ca26                	sw	s1,20(sp)
1c00b3c2:	c64e                	sw	s3,12(sp)
1c00b3c4:	892e                	mv	s2,a1
1c00b3c6:	24c1                	jal	1c00b686 <putchar>
1c00b3c8:	4785                	li	a5,1
1c00b3ca:	0327d563          	ble	s2,a5,1c00b3f4 <print_array+0x44>
1c00b3ce:	00291793          	slli	a5,s2,0x2
1c00b3d2:	ffca0493          	addi	s1,s4,-4
1c00b3d6:	8452                	mv	s0,s4
1c00b3d8:	94be                	add	s1,s1,a5
1c00b3da:	1c0019b7          	lui	s3,0x1c001
1c00b3de:	0044250b          	p.lw	a0,4(s0!)
1c00b3e2:	bb4ff0ef          	jal	ra,1c00a796 <__extendsfdf2>
1c00b3e6:	862a                	mv	a2,a0
1c00b3e8:	86ae                	mv	a3,a1
1c00b3ea:	b8c98513          	addi	a0,s3,-1140 # 1c000b8c <__clz_tab+0x2ac>
1c00b3ee:	2cd5                	jal	1c00b6e2 <printf>
1c00b3f0:	fe8497e3          	bne	s1,s0,1c00b3de <print_array+0x2e>
1c00b3f4:	00291513          	slli	a0,s2,0x2
1c00b3f8:	1571                	addi	a0,a0,-4
1c00b3fa:	20aa7503          	p.lw	a0,a0(s4)
1c00b3fe:	b98ff0ef          	jal	ra,1c00a796 <__extendsfdf2>
1c00b402:	4462                	lw	s0,24(sp)
1c00b404:	40f2                	lw	ra,28(sp)
1c00b406:	44d2                	lw	s1,20(sp)
1c00b408:	4942                	lw	s2,16(sp)
1c00b40a:	49b2                	lw	s3,12(sp)
1c00b40c:	4a22                	lw	s4,8(sp)
1c00b40e:	862a                	mv	a2,a0
1c00b410:	1c001537          	lui	a0,0x1c001
1c00b414:	86ae                	mv	a3,a1
1c00b416:	b9450513          	addi	a0,a0,-1132 # 1c000b94 <__clz_tab+0x2b4>
1c00b41a:	6105                	addi	sp,sp,32
1c00b41c:	a4d9                	j	1c00b6e2 <printf>

1c00b41e <norm_L2>:
1c00b41e:	1141                	addi	sp,sp,-16
1c00b420:	c606                	sw	ra,12(sp)
1c00b422:	00b05d63          	blez	a1,1c00b43c <norm_L2+0x1e>
1c00b426:	00259793          	slli	a5,a1,0x2
1c00b42a:	17f1                	addi	a5,a5,-4
1c00b42c:	8389                	srli	a5,a5,0x2
1c00b42e:	0785                	addi	a5,a5,1
1c00b430:	0047c0fb          	lp.setup	x1,a5,1c00b438 <norm_L2+0x1a>
1c00b434:	0045270b          	p.lw	a4,4(a0!)
1c00b438:	68e776c3          	fmadd.s	a3,a4,a4,a3
1c00b43c:	8536                	mv	a0,a3
1c00b43e:	b58ff0ef          	jal	ra,1c00a796 <__extendsfdf2>
1c00b442:	d03fc0ef          	jal	ra,1c008144 <sqrt>
1c00b446:	bf4ff0ef          	jal	ra,1c00a83a <__truncdfsf2>
1c00b44a:	40b2                	lw	ra,12(sp)
1c00b44c:	0141                	addi	sp,sp,16
1c00b44e:	8082                	ret

1c00b450 <zeros>:
1c00b450:	00b05d63          	blez	a1,1c00b46a <zeros+0x1a>
1c00b454:	00259793          	slli	a5,a1,0x2
1c00b458:	17f1                	addi	a5,a5,-4
1c00b45a:	8389                	srli	a5,a5,0x2
1c00b45c:	0785                	addi	a5,a5,1
1c00b45e:	0047c0fb          	lp.setup	x1,a5,1c00b466 <zeros+0x16>
1c00b462:	00000713          	li	a4,0
1c00b466:	00e5222b          	p.sw	a4,4(a0!)
1c00b46a:	8082                	ret

1c00b46c <pos_fll_set_freq>:
1c00b46c:	100596b3          	p.fl1	a3,a1
1c00b470:	47f5                	li	a5,29
1c00b472:	4705                	li	a4,1
1c00b474:	82d7b7db          	p.subun	a5,a5,a3,1
1c00b478:	04f767b3          	p.max	a5,a4,a5
1c00b47c:	00400693          	li	a3,4
1c00b480:	fff78813          	addi	a6,a5,-1
1c00b484:	00f595b3          	sll	a1,a1,a5
1c00b488:	00a68633          	add	a2,a3,a0
1c00b48c:	01071733          	sll	a4,a4,a6
1c00b490:	00c64603          	lbu	a2,12(a2)
1c00b494:	dc05b833          	p.bclr	a6,a1,14,0
1c00b498:	c0f8275b          	p.addunr	a4,a6,a5
1c00b49c:	00251813          	slli	a6,a0,0x2
1c00b4a0:	00e6e823          	p.sw	a4,a6(a3)
1c00b4a4:	ce19                	beqz	a2,1c00b4c2 <pos_fll_set_freq+0x56>
1c00b4a6:	0512                	slli	a0,a0,0x4
1c00b4a8:	0511                	addi	a0,a0,4
1c00b4aa:	1a100637          	lui	a2,0x1a100
1c00b4ae:	20a67683          	p.lw	a3,a0(a2)
1c00b4b2:	81bd                	srli	a1,a1,0xf
1c00b4b4:	de05a6b3          	p.insert	a3,a1,15,0
1c00b4b8:	0785                	addi	a5,a5,1
1c00b4ba:	c7a7a6b3          	p.insert	a3,a5,3,26
1c00b4be:	00d66523          	p.sw	a3,a0(a2)
1c00b4c2:	853a                	mv	a0,a4
1c00b4c4:	8082                	ret

1c00b4c6 <pos_fll_init>:
1c00b4c6:	00451593          	slli	a1,a0,0x4
1c00b4ca:	832a                	mv	t1,a0
1c00b4cc:	00458e13          	addi	t3,a1,4
1c00b4d0:	1a100637          	lui	a2,0x1a100
1c00b4d4:	21c67703          	p.lw	a4,t3(a2)
1c00b4d8:	86ba                	mv	a3,a4
1c00b4da:	04074163          	bltz	a4,1c00b51c <pos_fll_init+0x56>
1c00b4de:	00858793          	addi	a5,a1,8
1c00b4e2:	20f67883          	p.lw	a7,a5(a2)
1c00b4e6:	4519                	li	a0,6
1c00b4e8:	caa528b3          	p.insert	a7,a0,5,10
1c00b4ec:	05000513          	li	a0,80
1c00b4f0:	d70528b3          	p.insert	a7,a0,11,16
1c00b4f4:	1a100837          	lui	a6,0x1a100
1c00b4f8:	011867a3          	p.sw	a7,a5(a6)
1c00b4fc:	05b1                	addi	a1,a1,12
1c00b4fe:	20b67603          	p.lw	a2,a1(a2)
1c00b502:	14c00793          	li	a5,332
1c00b506:	d307a633          	p.insert	a2,a5,9,16
1c00b50a:	00c865a3          	p.sw	a2,a1(a6)
1c00b50e:	4785                	li	a5,1
1c00b510:	c1e7a6b3          	p.insert	a3,a5,0,30
1c00b514:	c1f7a6b3          	p.insert	a3,a5,0,31
1c00b518:	00d86e23          	p.sw	a3,t3(a6)
1c00b51c:	00400793          	li	a5,4
1c00b520:	00231613          	slli	a2,t1,0x2
1c00b524:	963e                	add	a2,a2,a5
1c00b526:	4208                	lw	a0,0(a2)
1c00b528:	ed19                	bnez	a0,1c00b546 <pos_fll_init+0x80>
1c00b52a:	10075733          	p.exthz	a4,a4
1c00b52e:	c7a696b3          	p.extractu	a3,a3,3,26
1c00b532:	073e                	slli	a4,a4,0xf
1c00b534:	16fd                	addi	a3,a3,-1
1c00b536:	00d75533          	srl	a0,a4,a3
1c00b53a:	c208                	sw	a0,0(a2)
1c00b53c:	979a                	add	a5,a5,t1
1c00b53e:	4705                	li	a4,1
1c00b540:	00e78623          	sb	a4,12(a5)
1c00b544:	8082                	ret
1c00b546:	46f5                	li	a3,29
1c00b548:	10051733          	p.fl1	a4,a0
1c00b54c:	4585                	li	a1,1
1c00b54e:	82e6b75b          	p.subun	a4,a3,a4,1
1c00b552:	04e5e733          	p.max	a4,a1,a4
1c00b556:	fff70893          	addi	a7,a4,-1
1c00b55a:	00e51833          	sll	a6,a0,a4
1c00b55e:	006786b3          	add	a3,a5,t1
1c00b562:	011595b3          	sll	a1,a1,a7
1c00b566:	00c6c683          	lbu	a3,12(a3)
1c00b56a:	dc0838b3          	p.bclr	a7,a6,14,0
1c00b56e:	c0e8a5db          	p.addunr	a1,a7,a4
1c00b572:	c20c                	sw	a1,0(a2)
1c00b574:	d6e1                	beqz	a3,1c00b53c <pos_fll_init+0x76>
1c00b576:	1a100637          	lui	a2,0x1a100
1c00b57a:	21c67683          	p.lw	a3,t3(a2)
1c00b57e:	00f85813          	srli	a6,a6,0xf
1c00b582:	de0826b3          	p.insert	a3,a6,15,0
1c00b586:	0705                	addi	a4,a4,1
1c00b588:	c7a726b3          	p.insert	a3,a4,3,26
1c00b58c:	00d66e23          	p.sw	a3,t3(a2)
1c00b590:	979a                	add	a5,a5,t1
1c00b592:	4705                	li	a4,1
1c00b594:	00e78623          	sb	a4,12(a5)
1c00b598:	8082                	ret

1c00b59a <pos_fll_constructor>:
1c00b59a:	00400793          	li	a5,4
1c00b59e:	0007a023          	sw	zero,0(a5)
1c00b5a2:	0007a223          	sw	zero,4(a5)
1c00b5a6:	0007a423          	sw	zero,8(a5)
1c00b5aa:	00079623          	sh	zero,12(a5)
1c00b5ae:	00078723          	sb	zero,14(a5)
1c00b5b2:	8082                	ret

1c00b5b4 <pos_soc_init>:
1c00b5b4:	1141                	addi	sp,sp,-16
1c00b5b6:	c606                	sw	ra,12(sp)
1c00b5b8:	c422                	sw	s0,8(sp)
1c00b5ba:	37c5                	jal	1c00b59a <pos_fll_constructor>
1c00b5bc:	4501                	li	a0,0
1c00b5be:	3721                	jal	1c00b4c6 <pos_fll_init>
1c00b5c0:	00a02a23          	sw	a0,20(zero) # 14 <pos_freq_domains>
1c00b5c4:	4505                	li	a0,1
1c00b5c6:	3701                	jal	1c00b4c6 <pos_fll_init>
1c00b5c8:	01400413          	li	s0,20
1c00b5cc:	c408                	sw	a0,8(s0)
1c00b5ce:	4509                	li	a0,2
1c00b5d0:	3ddd                	jal	1c00b4c6 <pos_fll_init>
1c00b5d2:	c048                	sw	a0,4(s0)
1c00b5d4:	40b2                	lw	ra,12(sp)
1c00b5d6:	4422                	lw	s0,8(sp)
1c00b5d8:	0141                	addi	sp,sp,16
1c00b5da:	8082                	ret

1c00b5dc <__errno>:
1c00b5dc:	1c005537          	lui	a0,0x1c005
1c00b5e0:	4c850513          	addi	a0,a0,1224 # 1c0054c8 <_bss_start>
1c00b5e4:	8082                	ret

1c00b5e6 <strchr>:
1c00b5e6:	00054783          	lbu	a5,0(a0)
1c00b5ea:	0ff5f593          	andi	a1,a1,255
1c00b5ee:	00b78c63          	beq	a5,a1,1c00b606 <strchr+0x20>
1c00b5f2:	cb99                	beqz	a5,1c00b608 <strchr+0x22>
1c00b5f4:	00150793          	addi	a5,a0,1
1c00b5f8:	a011                	j	1c00b5fc <strchr+0x16>
1c00b5fa:	c719                	beqz	a4,1c00b608 <strchr+0x22>
1c00b5fc:	853e                	mv	a0,a5
1c00b5fe:	0017c70b          	p.lbu	a4,1(a5!)
1c00b602:	feb71ce3          	bne	a4,a1,1c00b5fa <strchr+0x14>
1c00b606:	8082                	ret
1c00b608:	0015b593          	seqz	a1,a1
1c00b60c:	40b005b3          	neg	a1,a1
1c00b610:	8d6d                	and	a0,a0,a1
1c00b612:	8082                	ret

1c00b614 <puts>:
1c00b614:	00054783          	lbu	a5,0(a0)
1c00b618:	f14026f3          	csrr	a3,mhartid
1c00b61c:	c395                	beqz	a5,1c00b640 <puts+0x2c>
1c00b61e:	ca569733          	p.extractu	a4,a3,5,5
1c00b622:	f1402673          	csrr	a2,mhartid
1c00b626:	071e                	slli	a4,a4,0x7
1c00b628:	060e                	slli	a2,a2,0x3
1c00b62a:	1a10f5b7          	lui	a1,0x1a10f
1c00b62e:	972e                	add	a4,a4,a1
1c00b630:	ee863633          	p.bclr	a2,a2,23,8
1c00b634:	0505                	addi	a0,a0,1
1c00b636:	9732                	add	a4,a4,a2
1c00b638:	c31c                	sw	a5,0(a4)
1c00b63a:	0015478b          	p.lbu	a5,1(a0!)
1c00b63e:	ffed                	bnez	a5,1c00b638 <puts+0x24>
1c00b640:	ca5696b3          	p.extractu	a3,a3,5,5
1c00b644:	1a10f737          	lui	a4,0x1a10f
1c00b648:	f14027f3          	csrr	a5,mhartid
1c00b64c:	069e                	slli	a3,a3,0x7
1c00b64e:	078e                	slli	a5,a5,0x3
1c00b650:	96ba                	add	a3,a3,a4
1c00b652:	ee87b7b3          	p.bclr	a5,a5,23,8
1c00b656:	4729                	li	a4,10
1c00b658:	00e6e7a3          	p.sw	a4,a5(a3)
1c00b65c:	4501                	li	a0,0
1c00b65e:	8082                	ret

1c00b660 <pos_libc_fputc_locked>:
1c00b660:	f14027f3          	csrr	a5,mhartid
1c00b664:	1a10f6b7          	lui	a3,0x1a10f
1c00b668:	f1402773          	csrr	a4,mhartid
1c00b66c:	ca5797b3          	p.extractu	a5,a5,5,5
1c00b670:	070e                	slli	a4,a4,0x3
1c00b672:	079e                	slli	a5,a5,0x7
1c00b674:	0ff57513          	andi	a0,a0,255
1c00b678:	ee873733          	p.bclr	a4,a4,23,8
1c00b67c:	97b6                	add	a5,a5,a3
1c00b67e:	00a767a3          	p.sw	a0,a5(a4)
1c00b682:	4501                	li	a0,0
1c00b684:	8082                	ret

1c00b686 <putchar>:
1c00b686:	f14027f3          	csrr	a5,mhartid
1c00b68a:	1a10f6b7          	lui	a3,0x1a10f
1c00b68e:	f1402773          	csrr	a4,mhartid
1c00b692:	ca5797b3          	p.extractu	a5,a5,5,5
1c00b696:	070e                	slli	a4,a4,0x3
1c00b698:	079e                	slli	a5,a5,0x7
1c00b69a:	0ff57513          	andi	a0,a0,255
1c00b69e:	ee873733          	p.bclr	a4,a4,23,8
1c00b6a2:	97b6                	add	a5,a5,a3
1c00b6a4:	00a767a3          	p.sw	a0,a5(a4)
1c00b6a8:	4501                	li	a0,0
1c00b6aa:	8082                	ret

1c00b6ac <pos_libc_prf_locked>:
1c00b6ac:	a095                	j	1c00b710 <pos_libc_prf>

1c00b6ae <exit>:
1c00b6ae:	1141                	addi	sp,sp,-16
1c00b6b0:	c422                	sw	s0,8(sp)
1c00b6b2:	c606                	sw	ra,12(sp)
1c00b6b4:	842a                	mv	s0,a0
1c00b6b6:	443010ef          	jal	ra,1c00d2f8 <pos_init_stop>
1c00b6ba:	c1f44533          	p.bset	a0,s0,0,31
1c00b6be:	1a1047b7          	lui	a5,0x1a104
1c00b6c2:	0aa7a023          	sw	a0,160(a5) # 1a1040a0 <__l1_end+0xa0fff78>
1c00b6c6:	1a10a7b7          	lui	a5,0x1a10a
1c00b6ca:	577d                	li	a4,-1
1c00b6cc:	80e7a423          	sw	a4,-2040(a5) # 1a109808 <__l1_end+0xa1056e0>
1c00b6d0:	10500073          	wfi
1c00b6d4:	10500073          	wfi
1c00b6d8:	bfe5                	j	1c00b6d0 <exit+0x22>

1c00b6da <pos_io_start>:
1c00b6da:	4501                	li	a0,0
1c00b6dc:	8082                	ret

1c00b6de <pos_io_stop>:
1c00b6de:	4501                	li	a0,0
1c00b6e0:	8082                	ret

1c00b6e2 <printf>:
1c00b6e2:	7139                	addi	sp,sp,-64
1c00b6e4:	02410313          	addi	t1,sp,36
1c00b6e8:	d432                	sw	a2,40(sp)
1c00b6ea:	862a                	mv	a2,a0
1c00b6ec:	1c00b537          	lui	a0,0x1c00b
1c00b6f0:	d22e                	sw	a1,36(sp)
1c00b6f2:	d636                	sw	a3,44(sp)
1c00b6f4:	4589                	li	a1,2
1c00b6f6:	869a                	mv	a3,t1
1c00b6f8:	66050513          	addi	a0,a0,1632 # 1c00b660 <pos_libc_fputc_locked>
1c00b6fc:	ce06                	sw	ra,28(sp)
1c00b6fe:	d83a                	sw	a4,48(sp)
1c00b700:	da3e                	sw	a5,52(sp)
1c00b702:	dc42                	sw	a6,56(sp)
1c00b704:	de46                	sw	a7,60(sp)
1c00b706:	c61a                	sw	t1,12(sp)
1c00b708:	3755                	jal	1c00b6ac <pos_libc_prf_locked>
1c00b70a:	40f2                	lw	ra,28(sp)
1c00b70c:	6121                	addi	sp,sp,64
1c00b70e:	8082                	ret

1c00b710 <pos_libc_prf>:
1c00b710:	7119                	addi	sp,sp,-128
1c00b712:	dca2                	sw	s0,120(sp)
1c00b714:	1058                	addi	a4,sp,36
1c00b716:	4401                	li	s0,0
1c00b718:	d6ce                	sw	s3,108(sp)
1c00b71a:	d4d2                	sw	s4,104(sp)
1c00b71c:	d2d6                	sw	s5,100(sp)
1c00b71e:	cede                	sw	s7,92(sp)
1c00b720:	cce2                	sw	s8,88(sp)
1c00b722:	c8ea                	sw	s10,80(sp)
1c00b724:	de86                	sw	ra,124(sp)
1c00b726:	daa6                	sw	s1,116(sp)
1c00b728:	d8ca                	sw	s2,112(sp)
1c00b72a:	d0da                	sw	s6,96(sp)
1c00b72c:	cae6                	sw	s9,84(sp)
1c00b72e:	c6ee                	sw	s11,76(sp)
1c00b730:	89aa                	mv	s3,a0
1c00b732:	8bae                	mv	s7,a1
1c00b734:	8d32                	mv	s10,a2
1c00b736:	8a36                	mv	s4,a3
1c00b738:	1c001c37          	lui	s8,0x1c001
1c00b73c:	c03a                	sw	a4,0(sp)
1c00b73e:	8aa2                	mv	s5,s0
1c00b740:	a039                	j	1c00b74e <pos_libc_prf+0x3e>
1c00b742:	85de                	mv	a1,s7
1c00b744:	9982                	jalr	s3
1c00b746:	15f52063          	p.beqimm	a0,-1,1c00b886 <pos_libc_prf+0x176>
1c00b74a:	0a85                	addi	s5,s5,1
1c00b74c:	8d22                	mv	s10,s0
1c00b74e:	000d4503          	lbu	a0,0(s10)
1c00b752:	001d0413          	addi	s0,s10,1
1c00b756:	c979                	beqz	a0,1c00b82c <pos_libc_prf+0x11c>
1c00b758:	02500793          	li	a5,37
1c00b75c:	fef513e3          	bne	a0,a5,1c00b742 <pos_libc_prf+0x32>
1c00b760:	ca02                	sw	zero,20(sp)
1c00b762:	c802                	sw	zero,16(sp)
1c00b764:	c602                	sw	zero,12(sp)
1c00b766:	c402                	sw	zero,8(sp)
1c00b768:	c202                	sw	zero,4(sp)
1c00b76a:	02300493          	li	s1,35
1c00b76e:	02d00b13          	li	s6,45
1c00b772:	00044c83          	lbu	s9,0(s0)
1c00b776:	00140913          	addi	s2,s0,1
1c00b77a:	b9cc0513          	addi	a0,s8,-1124 # 1c000b9c <__clz_tab+0x2bc>
1c00b77e:	85e6                	mv	a1,s9
1c00b780:	8d4a                	mv	s10,s2
1c00b782:	8de6                	mv	s11,s9
1c00b784:	358d                	jal	1c00b5e6 <strchr>
1c00b786:	c91d                	beqz	a0,1c00b7bc <pos_libc_prf+0xac>
1c00b788:	109c8963          	beq	s9,s1,1c00b89a <pos_libc_prf+0x18a>
1c00b78c:	0194fe63          	bleu	s9,s1,1c00b7a8 <pos_libc_prf+0x98>
1c00b790:	116c8163          	beq	s9,s6,1c00b892 <pos_libc_prf+0x182>
1c00b794:	03000713          	li	a4,48
1c00b798:	0eec8963          	beq	s9,a4,1c00b88a <pos_libc_prf+0x17a>
1c00b79c:	02b00793          	li	a5,43
1c00b7a0:	0afc8763          	beq	s9,a5,1c00b84e <pos_libc_prf+0x13e>
1c00b7a4:	844a                	mv	s0,s2
1c00b7a6:	b7f1                	j	1c00b772 <pos_libc_prf+0x62>
1c00b7a8:	080c8263          	beqz	s9,1c00b82c <pos_libc_prf+0x11c>
1c00b7ac:	02000793          	li	a5,32
1c00b7b0:	fefc9ae3          	bne	s9,a5,1c00b7a4 <pos_libc_prf+0x94>
1c00b7b4:	4785                	li	a5,1
1c00b7b6:	c83e                	sw	a5,16(sp)
1c00b7b8:	844a                	mv	s0,s2
1c00b7ba:	bf65                	j	1c00b772 <pos_libc_prf+0x62>
1c00b7bc:	02a00693          	li	a3,42
1c00b7c0:	2edc8263          	beq	s9,a3,1c00baa4 <pos_libc_prf+0x394>
1c00b7c4:	fd0c8693          	addi	a3,s9,-48
1c00b7c8:	45a5                	li	a1,9
1c00b7ca:	4b01                	li	s6,0
1c00b7cc:	0cd5fd63          	bleu	a3,a1,1c00b8a6 <pos_libc_prf+0x196>
1c00b7d0:	02e00793          	li	a5,46
1c00b7d4:	28fd8663          	beq	s11,a5,1c00ba60 <pos_libc_prf+0x350>
1c00b7d8:	846e                	mv	s0,s11
1c00b7da:	54fd                	li	s1,-1
1c00b7dc:	1c001737          	lui	a4,0x1c001
1c00b7e0:	85ee                	mv	a1,s11
1c00b7e2:	ba470513          	addi	a0,a4,-1116 # 1c000ba4 <__clz_tab+0x2c4>
1c00b7e6:	3501                	jal	1c00b5e6 <strchr>
1c00b7e8:	4781                	li	a5,0
1c00b7ea:	cd19                	beqz	a0,1c00b808 <pos_libc_prf+0xf8>
1c00b7ec:	06c00793          	li	a5,108
1c00b7f0:	001d0693          	addi	a3,s10,1
1c00b7f4:	000d4d83          	lbu	s11,0(s10)
1c00b7f8:	3af40563          	beq	s0,a5,1c00bba2 <pos_libc_prf+0x492>
1c00b7fc:	06800793          	li	a5,104
1c00b800:	3af40563          	beq	s0,a5,1c00bbaa <pos_libc_prf+0x49a>
1c00b804:	8d36                	mv	s10,a3
1c00b806:	87a2                	mv	a5,s0
1c00b808:	06700693          	li	a3,103
1c00b80c:	0bb6ee63          	bltu	a3,s11,1c00b8c8 <pos_libc_prf+0x1b8>
1c00b810:	06500693          	li	a3,101
1c00b814:	3addf0e3          	bleu	a3,s11,1c00c3b4 <pos_libc_prf+0xca4>
1c00b818:	04700693          	li	a3,71
1c00b81c:	39b6ed63          	bltu	a3,s11,1c00bbb6 <pos_libc_prf+0x4a6>
1c00b820:	04500793          	li	a5,69
1c00b824:	38fdf8e3          	bleu	a5,s11,1c00c3b4 <pos_libc_prf+0xca4>
1c00b828:	2e0d9863          	bnez	s11,1c00bb18 <pos_libc_prf+0x408>
1c00b82c:	8456                	mv	s0,s5
1c00b82e:	8522                	mv	a0,s0
1c00b830:	50f6                	lw	ra,124(sp)
1c00b832:	5466                	lw	s0,120(sp)
1c00b834:	54d6                	lw	s1,116(sp)
1c00b836:	5946                	lw	s2,112(sp)
1c00b838:	59b6                	lw	s3,108(sp)
1c00b83a:	5a26                	lw	s4,104(sp)
1c00b83c:	5a96                	lw	s5,100(sp)
1c00b83e:	5b06                	lw	s6,96(sp)
1c00b840:	4bf6                	lw	s7,92(sp)
1c00b842:	4c66                	lw	s8,88(sp)
1c00b844:	4cd6                	lw	s9,84(sp)
1c00b846:	4d46                	lw	s10,80(sp)
1c00b848:	4db6                	lw	s11,76(sp)
1c00b84a:	6109                	addi	sp,sp,128
1c00b84c:	8082                	ret
1c00b84e:	4705                	li	a4,1
1c00b850:	c63a                	sw	a4,12(sp)
1c00b852:	844a                	mv	s0,s2
1c00b854:	bf39                	j	1c00b772 <pos_libc_prf+0x62>
1c00b856:	00044503          	lbu	a0,0(s0)
1c00b85a:	47a5                	li	a5,9
1c00b85c:	fd050693          	addi	a3,a0,-48
1c00b860:	72d7ece3          	bltu	a5,a3,1c00c798 <pos_libc_prf+0x1088>
1c00b864:	00140793          	addi	a5,s0,1
1c00b868:	8dbe                	mv	s11,a5
1c00b86a:	a809                	j	1c00b87c <pos_libc_prf+0x16c>
1c00b86c:	001dc50b          	p.lbu	a0,1(s11!)
1c00b870:	4725                	li	a4,9
1c00b872:	197d                	addi	s2,s2,-1
1c00b874:	fd050793          	addi	a5,a0,-48
1c00b878:	72f761e3          	bltu	a4,a5,1c00c79a <pos_libc_prf+0x108a>
1c00b87c:	85de                	mv	a1,s7
1c00b87e:	846e                	mv	s0,s11
1c00b880:	9982                	jalr	s3
1c00b882:	fff535e3          	p.bneimm	a0,-1,1c00b86c <pos_libc_prf+0x15c>
1c00b886:	547d                	li	s0,-1
1c00b888:	b75d                	j	1c00b82e <pos_libc_prf+0x11e>
1c00b88a:	4785                	li	a5,1
1c00b88c:	ca3e                	sw	a5,20(sp)
1c00b88e:	844a                	mv	s0,s2
1c00b890:	b5cd                	j	1c00b772 <pos_libc_prf+0x62>
1c00b892:	4705                	li	a4,1
1c00b894:	c43a                	sw	a4,8(sp)
1c00b896:	844a                	mv	s0,s2
1c00b898:	bde9                	j	1c00b772 <pos_libc_prf+0x62>
1c00b89a:	4705                	li	a4,1
1c00b89c:	c23a                	sw	a4,4(sp)
1c00b89e:	844a                	mv	s0,s2
1c00b8a0:	bdc9                	j	1c00b772 <pos_libc_prf+0x62>
1c00b8a2:	844a                	mv	s0,s2
1c00b8a4:	0905                	addi	s2,s2,1
1c00b8a6:	00094d83          	lbu	s11,0(s2)
1c00b8aa:	002b1793          	slli	a5,s6,0x2
1c00b8ae:	97da                	add	a5,a5,s6
1c00b8b0:	0786                	slli	a5,a5,0x1
1c00b8b2:	97e6                	add	a5,a5,s9
1c00b8b4:	fd0d8713          	addi	a4,s11,-48
1c00b8b8:	fd078b13          	addi	s6,a5,-48
1c00b8bc:	8cee                	mv	s9,s11
1c00b8be:	fee5f2e3          	bleu	a4,a1,1c00b8a2 <pos_libc_prf+0x192>
1c00b8c2:	00240d13          	addi	s10,s0,2
1c00b8c6:	b729                	j	1c00b7d0 <pos_libc_prf+0xc0>
1c00b8c8:	07000693          	li	a3,112
1c00b8cc:	24dd83e3          	beq	s11,a3,1c00c312 <pos_libc_prf+0xc02>
1c00b8d0:	1fb6e463          	bltu	a3,s11,1c00bab8 <pos_libc_prf+0x3a8>
1c00b8d4:	06e00693          	li	a3,110
1c00b8d8:	20dd88e3          	beq	s11,a3,1c00c2e8 <pos_libc_prf+0xbd8>
1c00b8dc:	2fb6e763          	bltu	a3,s11,1c00bbca <pos_libc_prf+0x4ba>
1c00b8e0:	06900693          	li	a3,105
1c00b8e4:	2add9ae3          	bne	s11,a3,1c00c398 <pos_libc_prf+0xc88>
1c00b8e8:	06c00693          	li	a3,108
1c00b8ec:	00d78a63          	beq	a5,a3,1c00b900 <pos_libc_prf+0x1f0>
1c00b8f0:	07a00693          	li	a3,122
1c00b8f4:	00d78663          	beq	a5,a3,1c00b900 <pos_libc_prf+0x1f0>
1c00b8f8:	04c00693          	li	a3,76
1c00b8fc:	60d780e3          	beq	a5,a3,1c00c6fc <pos_libc_prf+0xfec>
1c00b900:	000a2783          	lw	a5,0(s4)
1c00b904:	0a11                	addi	s4,s4,4
1c00b906:	ce52                	sw	s4,28(sp)
1c00b908:	41f7d713          	srai	a4,a5,0x1f
1c00b90c:	c23a                	sw	a4,4(sp)
1c00b90e:	4e0744e3          	bltz	a4,1c00c5f6 <pos_libc_prf+0xee6>
1c00b912:	4732                	lw	a4,12(sp)
1c00b914:	44070ce3          	beqz	a4,1c00c56c <pos_libc_prf+0xe5c>
1c00b918:	4c92                	lw	s9,4(sp)
1c00b91a:	02b00693          	li	a3,43
1c00b91e:	02d10223          	sb	a3,36(sp)
1c00b922:	02510a13          	addi	s4,sp,37
1c00b926:	843e                	mv	s0,a5
1c00b928:	8dd2                	mv	s11,s4
1c00b92a:	a011                	j	1c00b92e <pos_libc_prf+0x21e>
1c00b92c:	8dca                	mv	s11,s2
1c00b92e:	4629                	li	a2,10
1c00b930:	4681                	li	a3,0
1c00b932:	8522                	mv	a0,s0
1c00b934:	85e6                	mv	a1,s9
1c00b936:	d71fc0ef          	jal	ra,1c0086a6 <__umoddi3>
1c00b93a:	892a                	mv	s2,a0
1c00b93c:	85e6                	mv	a1,s9
1c00b93e:	8522                	mv	a0,s0
1c00b940:	4629                	li	a2,10
1c00b942:	4681                	li	a3,0
1c00b944:	a27fc0ef          	jal	ra,1c00836a <__udivdi3>
1c00b948:	03090913          	addi	s2,s2,48
1c00b94c:	012d8023          	sb	s2,0(s11)
1c00b950:	00a5e7b3          	or	a5,a1,a0
1c00b954:	001d8913          	addi	s2,s11,1
1c00b958:	842a                	mv	s0,a0
1c00b95a:	8cae                	mv	s9,a1
1c00b95c:	fbe1                	bnez	a5,1c00b92c <pos_libc_prf+0x21c>
1c00b95e:	00090023          	sb	zero,0(s2)
1c00b962:	01ba7d63          	bleu	s11,s4,1c00b97c <pos_libc_prf+0x26c>
1c00b966:	87ee                	mv	a5,s11
1c00b968:	000a4683          	lbu	a3,0(s4)
1c00b96c:	0007c703          	lbu	a4,0(a5)
1c00b970:	fed78fab          	p.sb	a3,-1(a5!)
1c00b974:	00ea00ab          	p.sb	a4,1(s4!)
1c00b978:	fefa68e3          	bltu	s4,a5,1c00b968 <pos_libc_prf+0x258>
1c00b97c:	4782                	lw	a5,0(sp)
1c00b97e:	4732                	lw	a4,12(sp)
1c00b980:	40f90933          	sub	s2,s2,a5
1c00b984:	3e0710e3          	bnez	a4,1c00c564 <pos_libc_prf+0xe54>
1c00b988:	47c2                	lw	a5,16(sp)
1c00b98a:	3c079de3          	bnez	a5,1c00c564 <pos_libc_prf+0xe54>
1c00b98e:	4712                	lw	a4,4(sp)
1c00b990:	837d                	srli	a4,a4,0x1f
1c00b992:	c23a                	sw	a4,4(sp)
1c00b994:	3404c463          	bltz	s1,1c00bcdc <pos_libc_prf+0x5cc>
1c00b998:	4712                	lw	a4,4(sp)
1c00b99a:	412484b3          	sub	s1,s1,s2
1c00b99e:	1040                	addi	s0,sp,36
1c00b9a0:	94ba                	add	s1,s1,a4
1c00b9a2:	0404e4b3          	p.max	s1,s1,zero
1c00b9a6:	009907b3          	add	a5,s2,s1
1c00b9aa:	40fb0b33          	sub	s6,s6,a5
1c00b9ae:	4c81                	li	s9,0
1c00b9b0:	cc02                	sw	zero,24(sp)
1c00b9b2:	4a01                	li	s4,0
1c00b9b4:	4722                	lw	a4,8(sp)
1c00b9b6:	e305                	bnez	a4,1c00b9d6 <pos_libc_prf+0x2c6>
1c00b9b8:	01605f63          	blez	s6,1c00b9d6 <pos_libc_prf+0x2c6>
1c00b9bc:	fffb0d93          	addi	s11,s6,-1
1c00b9c0:	85de                	mv	a1,s7
1c00b9c2:	02000513          	li	a0,32
1c00b9c6:	9982                	jalr	s3
1c00b9c8:	1dfd                	addi	s11,s11,-1
1c00b9ca:	ebf52ee3          	p.beqimm	a0,-1,1c00b886 <pos_libc_prf+0x176>
1c00b9ce:	fffdb9e3          	p.bneimm	s11,-1,1c00b9c0 <pos_libc_prf+0x2b0>
1c00b9d2:	9ada                	add	s5,s5,s6
1c00b9d4:	5b7d                	li	s6,-1
1c00b9d6:	4792                	lw	a5,4(sp)
1c00b9d8:	00f40db3          	add	s11,s0,a5
1c00b9dc:	a031                	j	1c00b9e8 <pos_libc_prf+0x2d8>
1c00b9de:	0014450b          	p.lbu	a0,1(s0!)
1c00b9e2:	9982                	jalr	s3
1c00b9e4:	ebf521e3          	p.beqimm	a0,-1,1c00b886 <pos_libc_prf+0x176>
1c00b9e8:	85de                	mv	a1,s7
1c00b9ea:	ffb41ae3          	bne	s0,s11,1c00b9de <pos_libc_prf+0x2ce>
1c00b9ee:	8da6                	mv	s11,s1
1c00b9f0:	a021                	j	1c00b9f8 <pos_libc_prf+0x2e8>
1c00b9f2:	9982                	jalr	s3
1c00b9f4:	e9f529e3          	p.beqimm	a0,-1,1c00b886 <pos_libc_prf+0x176>
1c00b9f8:	1dfd                	addi	s11,s11,-1
1c00b9fa:	85de                	mv	a1,s7
1c00b9fc:	03000513          	li	a0,48
1c00ba00:	fffdb9e3          	p.bneimm	s11,-1,1c00b9f2 <pos_libc_prf+0x2e2>
1c00ba04:	4712                	lw	a4,4(sp)
1c00ba06:	40e90933          	sub	s2,s2,a4
1c00ba0a:	c44a                	sw	s2,8(sp)
1c00ba0c:	e40a15e3          	bnez	s4,1c00b856 <pos_libc_prf+0x146>
1c00ba10:	47e2                	lw	a5,24(sp)
1c00ba12:	16079763          	bnez	a5,1c00bb80 <pos_libc_prf+0x470>
1c00ba16:	120c8863          	beqz	s9,1c00bb46 <pos_libc_prf+0x436>
1c00ba1a:	00044783          	lbu	a5,0(s0)
1c00ba1e:	4a25                	li	s4,9
1c00ba20:	02e00d93          	li	s11,46
1c00ba24:	a801                	j	1c00ba34 <pos_libc_prf+0x324>
1c00ba26:	0405                	addi	s0,s0,1
1c00ba28:	9982                	jalr	s3
1c00ba2a:	e5f52ee3          	p.beqimm	a0,-1,1c00b886 <pos_libc_prf+0x176>
1c00ba2e:	00044783          	lbu	a5,0(s0)
1c00ba32:	197d                	addi	s2,s2,-1
1c00ba34:	fd078713          	addi	a4,a5,-48
1c00ba38:	853e                	mv	a0,a5
1c00ba3a:	85de                	mv	a1,s7
1c00ba3c:	feea75e3          	bleu	a4,s4,1c00ba26 <pos_libc_prf+0x316>
1c00ba40:	ffb783e3          	beq	a5,s11,1c00ba26 <pos_libc_prf+0x316>
1c00ba44:	8a66                	mv	s4,s9
1c00ba46:	85de                	mv	a1,s7
1c00ba48:	03000513          	li	a0,48
1c00ba4c:	01404463          	bgtz	s4,1c00ba54 <pos_libc_prf+0x344>
1c00ba50:	0070106f          	j	1c00d256 <pos_libc_prf+0x1b46>
1c00ba54:	9982                	jalr	s3
1c00ba56:	1a7d                	addi	s4,s4,-1
1c00ba58:	fff537e3          	p.bneimm	a0,-1,1c00ba46 <pos_libc_prf+0x336>
1c00ba5c:	547d                	li	s0,-1
1c00ba5e:	bbc1                	j	1c00b82e <pos_libc_prf+0x11e>
1c00ba60:	000d4d83          	lbu	s11,0(s10)
1c00ba64:	02a00793          	li	a5,42
1c00ba68:	001d0513          	addi	a0,s10,1
1c00ba6c:	08fd8e63          	beq	s11,a5,1c00bb08 <pos_libc_prf+0x3f8>
1c00ba70:	fd0d8793          	addi	a5,s11,-48
1c00ba74:	4825                	li	a6,9
1c00ba76:	846e                	mv	s0,s11
1c00ba78:	86aa                	mv	a3,a0
1c00ba7a:	4481                	li	s1,0
1c00ba7c:	45a5                	li	a1,9
1c00ba7e:	8d2a                	mv	s10,a0
1c00ba80:	d4f86ee3          	bltu	a6,a5,1c00b7dc <pos_libc_prf+0xcc>
1c00ba84:	00249793          	slli	a5,s1,0x2
1c00ba88:	97a6                	add	a5,a5,s1
1c00ba8a:	0786                	slli	a5,a5,0x1
1c00ba8c:	97ee                	add	a5,a5,s11
1c00ba8e:	0016cd8b          	p.lbu	s11,1(a3!) # 1a10f001 <__l1_end+0xa10aed9>
1c00ba92:	fd078493          	addi	s1,a5,-48
1c00ba96:	fd0d8793          	addi	a5,s11,-48
1c00ba9a:	846e                	mv	s0,s11
1c00ba9c:	fef5f4e3          	bleu	a5,a1,1c00ba84 <pos_libc_prf+0x374>
1c00baa0:	8d36                	mv	s10,a3
1c00baa2:	bb2d                	j	1c00b7dc <pos_libc_prf+0xcc>
1c00baa4:	000a2b03          	lw	s6,0(s4)
1c00baa8:	0a11                	addi	s4,s4,4
1c00baaa:	080b4363          	bltz	s6,1c00bb30 <pos_libc_prf+0x420>
1c00baae:	00094d83          	lbu	s11,0(s2)
1c00bab2:	00240d13          	addi	s10,s0,2
1c00bab6:	bb29                	j	1c00b7d0 <pos_libc_prf+0xc0>
1c00bab8:	07500693          	li	a3,117
1c00babc:	10dd8763          	beq	s11,a3,1c00bbca <pos_libc_prf+0x4ba>
1c00bac0:	07800693          	li	a3,120
1c00bac4:	10dd8363          	beq	s11,a3,1c00bbca <pos_libc_prf+0x4ba>
1c00bac8:	07300793          	li	a5,115
1c00bacc:	0cfd96e3          	bne	s11,a5,1c00c398 <pos_libc_prf+0xc88>
1c00bad0:	004a0713          	addi	a4,s4,4
1c00bad4:	ce3a                	sw	a4,28(sp)
1c00bad6:	000a2403          	lw	s0,0(s4)
1c00bada:	3c04c5e3          	bltz	s1,1c00c6a4 <pos_libc_prf+0xf94>
1c00bade:	460484e3          	beqz	s1,1c00c746 <pos_libc_prf+0x1036>
1c00bae2:	00044783          	lbu	a5,0(s0)
1c00bae6:	44078fe3          	beqz	a5,1c00c744 <pos_libc_prf+0x1034>
1c00baea:	00140793          	addi	a5,s0,1
1c00baee:	4901                	li	s2,0
1c00baf0:	a021                	j	1c00baf8 <pos_libc_prf+0x3e8>
1c00baf2:	0017c70b          	p.lbu	a4,1(a5!)
1c00baf6:	c701                	beqz	a4,1c00bafe <pos_libc_prf+0x3ee>
1c00baf8:	0905                	addi	s2,s2,1
1c00bafa:	fe994ce3          	blt	s2,s1,1c00baf2 <pos_libc_prf+0x3e2>
1c00bafe:	412b0b33          	sub	s6,s6,s2
1c00bb02:	4481                	li	s1,0
1c00bb04:	c202                	sw	zero,4(sp)
1c00bb06:	b565                	j	1c00b9ae <pos_libc_prf+0x29e>
1c00bb08:	001d4d83          	lbu	s11,1(s10)
1c00bb0c:	000a2483          	lw	s1,0(s4)
1c00bb10:	0d09                	addi	s10,s10,2
1c00bb12:	846e                	mv	s0,s11
1c00bb14:	0a11                	addi	s4,s4,4
1c00bb16:	b1d9                	j	1c00b7dc <pos_libc_prf+0xcc>
1c00bb18:	02500793          	li	a5,37
1c00bb1c:	06fd9ee3          	bne	s11,a5,1c00c398 <pos_libc_prf+0xc88>
1c00bb20:	85de                	mv	a1,s7
1c00bb22:	02500513          	li	a0,37
1c00bb26:	9982                	jalr	s3
1c00bb28:	d5f52fe3          	p.beqimm	a0,-1,1c00b886 <pos_libc_prf+0x176>
1c00bb2c:	0a85                	addi	s5,s5,1
1c00bb2e:	b105                	j	1c00b74e <pos_libc_prf+0x3e>
1c00bb30:	4785                	li	a5,1
1c00bb32:	41600b33          	neg	s6,s6
1c00bb36:	c43e                	sw	a5,8(sp)
1c00bb38:	bf9d                	j	1c00baae <pos_libc_prf+0x39e>
1c00bb3a:	0014450b          	p.lbu	a0,1(s0!)
1c00bb3e:	197d                	addi	s2,s2,-1
1c00bb40:	9982                	jalr	s3
1c00bb42:	d5f522e3          	p.beqimm	a0,-1,1c00b886 <pos_libc_prf+0x176>
1c00bb46:	85de                	mv	a1,s7
1c00bb48:	ff2049e3          	bgtz	s2,1c00bb3a <pos_libc_prf+0x42a>
1c00bb4c:	4792                	lw	a5,4(sp)
1c00bb4e:	4a72                	lw	s4,28(sp)
1c00bb50:	00fa8733          	add	a4,s5,a5
1c00bb54:	47a2                	lw	a5,8(sp)
1c00bb56:	9726                	add	a4,a4,s1
1c00bb58:	00e78ab3          	add	s5,a5,a4
1c00bb5c:	bf6059e3          	blez	s6,1c00b74e <pos_libc_prf+0x3e>
1c00bb60:	9ada                	add	s5,s5,s6
1c00bb62:	1b7d                	addi	s6,s6,-1
1c00bb64:	a029                	j	1c00bb6e <pos_libc_prf+0x45e>
1c00bb66:	01fb3463          	p.bneimm	s6,-1,1c00bb6e <pos_libc_prf+0x45e>
1c00bb6a:	6040106f          	j	1c00d16e <pos_libc_prf+0x1a5e>
1c00bb6e:	85de                	mv	a1,s7
1c00bb70:	02000513          	li	a0,32
1c00bb74:	9982                	jalr	s3
1c00bb76:	1b7d                	addi	s6,s6,-1
1c00bb78:	fff537e3          	p.bneimm	a0,-1,1c00bb66 <pos_libc_prf+0x456>
1c00bb7c:	547d                	li	s0,-1
1c00bb7e:	b945                	j	1c00b82e <pos_libc_prf+0x11e>
1c00bb80:	02e00a13          	li	s4,46
1c00bb84:	a029                	j	1c00bb8e <pos_libc_prf+0x47e>
1c00bb86:	014d9463          	bne	s11,s4,1c00bb8e <pos_libc_prf+0x47e>
1c00bb8a:	53a0106f          	j	1c00d0c4 <pos_libc_prf+0x19b4>
1c00bb8e:	00144d8b          	p.lbu	s11,1(s0!)
1c00bb92:	85de                	mv	a1,s7
1c00bb94:	197d                	addi	s2,s2,-1
1c00bb96:	856e                	mv	a0,s11
1c00bb98:	9982                	jalr	s3
1c00bb9a:	fff536e3          	p.bneimm	a0,-1,1c00bb86 <pos_libc_prf+0x476>
1c00bb9e:	547d                	li	s0,-1
1c00bba0:	b179                	j	1c00b82e <pos_libc_prf+0x11e>
1c00bba2:	188d86e3          	beq	s11,s0,1c00c52e <pos_libc_prf+0xe1e>
1c00bba6:	8d36                	mv	s10,a3
1c00bba8:	b185                	j	1c00b808 <pos_libc_prf+0xf8>
1c00bbaa:	188d89e3          	beq	s11,s0,1c00c53c <pos_libc_prf+0xe2c>
1c00bbae:	8d36                	mv	s10,a3
1c00bbb0:	06800793          	li	a5,104
1c00bbb4:	b991                	j	1c00b808 <pos_libc_prf+0xf8>
1c00bbb6:	06300693          	li	a3,99
1c00bbba:	70dd8a63          	beq	s11,a3,1c00c2ce <pos_libc_prf+0xbbe>
1c00bbbe:	d3b6e5e3          	bltu	a3,s11,1c00b8e8 <pos_libc_prf+0x1d8>
1c00bbc2:	05800693          	li	a3,88
1c00bbc6:	7cdd9963          	bne	s11,a3,1c00c398 <pos_libc_prf+0xc88>
1c00bbca:	06c00693          	li	a3,108
1c00bbce:	18d783e3          	beq	a5,a3,1c00c554 <pos_libc_prf+0xe44>
1c00bbd2:	07a00693          	li	a3,122
1c00bbd6:	16d78fe3          	beq	a5,a3,1c00c554 <pos_libc_prf+0xe44>
1c00bbda:	04c00693          	li	a3,76
1c00bbde:	2ed781e3          	beq	a5,a3,1c00c6c0 <pos_libc_prf+0xfb0>
1c00bbe2:	000a2403          	lw	s0,0(s4)
1c00bbe6:	0a11                	addi	s4,s4,4
1c00bbe8:	ce52                	sw	s4,28(sp)
1c00bbea:	4c81                	li	s9,0
1c00bbec:	06f00793          	li	a5,111
1c00bbf0:	3cfd84e3          	beq	s11,a5,1c00c7b8 <pos_libc_prf+0x10a8>
1c00bbf4:	07500793          	li	a5,117
1c00bbf8:	02410a13          	addi	s4,sp,36
1c00bbfc:	04fd8763          	beq	s11,a5,1c00bc4a <pos_libc_prf+0x53a>
1c00bc00:	4712                	lw	a4,4(sp)
1c00bc02:	2a070be3          	beqz	a4,1c00c6b8 <pos_libc_prf+0xfa8>
1c00bc06:	77e1                	lui	a5,0xffff8
1c00bc08:	8307c793          	xori	a5,a5,-2000
1c00bc0c:	02f11223          	sh	a5,36(sp)
1c00bc10:	4909                	li	s2,2
1c00bc12:	02610693          	addi	a3,sp,38
1c00bc16:	87b6                	mv	a5,a3
1c00bc18:	4e25                	li	t3,9
1c00bc1a:	f6443733          	p.bclr	a4,s0,27,4
1c00bc1e:	01cc9613          	slli	a2,s9,0x1c
1c00bc22:	8011                	srli	s0,s0,0x4
1c00bc24:	8c51                	or	s0,s0,a2
1c00bc26:	004cdc93          	srli	s9,s9,0x4
1c00bc2a:	05770813          	addi	a6,a4,87
1c00bc2e:	03070593          	addi	a1,a4,48
1c00bc32:	01946533          	or	a0,s0,s9
1c00bc36:	06ee7663          	bleu	a4,t3,1c00bca2 <pos_libc_prf+0x592>
1c00bc3a:	01078023          	sb	a6,0(a5) # ffff8000 <pulp__FC+0xffff8001>
1c00bc3e:	00178593          	addi	a1,a5,1
1c00bc42:	c52d                	beqz	a0,1c00bcac <pos_libc_prf+0x59c>
1c00bc44:	87ae                	mv	a5,a1
1c00bc46:	bfd1                	j	1c00bc1a <pos_libc_prf+0x50a>
1c00bc48:	8a4a                	mv	s4,s2
1c00bc4a:	4629                	li	a2,10
1c00bc4c:	4681                	li	a3,0
1c00bc4e:	8522                	mv	a0,s0
1c00bc50:	85e6                	mv	a1,s9
1c00bc52:	a55fc0ef          	jal	ra,1c0086a6 <__umoddi3>
1c00bc56:	892a                	mv	s2,a0
1c00bc58:	85e6                	mv	a1,s9
1c00bc5a:	8522                	mv	a0,s0
1c00bc5c:	4629                	li	a2,10
1c00bc5e:	4681                	li	a3,0
1c00bc60:	f0afc0ef          	jal	ra,1c00836a <__udivdi3>
1c00bc64:	03090913          	addi	s2,s2,48
1c00bc68:	012a0023          	sb	s2,0(s4)
1c00bc6c:	00a5e7b3          	or	a5,a1,a0
1c00bc70:	001a0913          	addi	s2,s4,1
1c00bc74:	842a                	mv	s0,a0
1c00bc76:	8cae                	mv	s9,a1
1c00bc78:	fbe1                	bnez	a5,1c00bc48 <pos_libc_prf+0x538>
1c00bc7a:	4782                	lw	a5,0(sp)
1c00bc7c:	00090023          	sb	zero,0(s2)
1c00bc80:	40f90933          	sub	s2,s2,a5
1c00bc84:	0147fd63          	bleu	s4,a5,1c00bc9e <pos_libc_prf+0x58e>
1c00bc88:	105c                	addi	a5,sp,36
1c00bc8a:	0007c683          	lbu	a3,0(a5)
1c00bc8e:	000a4703          	lbu	a4,0(s4)
1c00bc92:	feda0fab          	p.sb	a3,-1(s4!)
1c00bc96:	00e780ab          	p.sb	a4,1(a5!)
1c00bc9a:	ff47e8e3          	bltu	a5,s4,1c00bc8a <pos_libc_prf+0x57a>
1c00bc9e:	c202                	sw	zero,4(sp)
1c00bca0:	b9d5                	j	1c00b994 <pos_libc_prf+0x284>
1c00bca2:	00b78023          	sb	a1,0(a5)
1c00bca6:	00178593          	addi	a1,a5,1
1c00bcaa:	fd49                	bnez	a0,1c00bc44 <pos_libc_prf+0x534>
1c00bcac:	00058023          	sb	zero,0(a1) # 1a10f000 <__l1_end+0xa10aed8>
1c00bcb0:	8d95                	sub	a1,a1,a3
1c00bcb2:	00f6fc63          	bleu	a5,a3,1c00bcca <pos_libc_prf+0x5ba>
1c00bcb6:	0006c603          	lbu	a2,0(a3)
1c00bcba:	0007c703          	lbu	a4,0(a5)
1c00bcbe:	fec78fab          	p.sb	a2,-1(a5!)
1c00bcc2:	00e680ab          	p.sb	a4,1(a3!)
1c00bcc6:	fef6e8e3          	bltu	a3,a5,1c00bcb6 <pos_libc_prf+0x5a6>
1c00bcca:	05800793          	li	a5,88
1c00bcce:	28fd85e3          	beq	s11,a5,1c00c758 <pos_libc_prf+0x1048>
1c00bcd2:	4712                	lw	a4,4(sp)
1c00bcd4:	992e                	add	s2,s2,a1
1c00bcd6:	0706                	slli	a4,a4,0x1
1c00bcd8:	c23a                	sw	a4,4(sp)
1c00bcda:	b96d                	j	1c00b994 <pos_libc_prf+0x284>
1c00bcdc:	4c81                	li	s9,0
1c00bcde:	cc02                	sw	zero,24(sp)
1c00bce0:	4a01                	li	s4,0
1c00bce2:	47d2                	lw	a5,20(sp)
1c00bce4:	5c078f63          	beqz	a5,1c00c2c2 <pos_libc_prf+0xbb2>
1c00bce8:	412b04b3          	sub	s1,s6,s2
1c00bcec:	0404e4b3          	p.max	s1,s1,zero
1c00bcf0:	009907b3          	add	a5,s2,s1
1c00bcf4:	40fb0b33          	sub	s6,s6,a5
1c00bcf8:	1040                	addi	s0,sp,36
1c00bcfa:	b96d                	j	1c00b9b4 <pos_libc_prf+0x2a4>
1c00bcfc:	4301                	li	t1,0
1c00bcfe:	4881                	li	a7,0
1c00bd00:	4581                	li	a1,0
1c00bd02:	4801                	li	a6,0
1c00bd04:	4691                	li	a3,4
1c00bd06:	411686b3          	sub	a3,a3,a7
1c00bd0a:	0136c0fb          	lp.setup	x1,a3,1c00bd30 <pos_libc_prf+0x620>
1c00bd0e:	01f81713          	slli	a4,a6,0x1f
1c00bd12:	0015d793          	srli	a5,a1,0x1
1c00bd16:	8fd9                	or	a5,a5,a4
1c00bd18:	fc15b5b3          	p.bclr	a1,a1,30,1
1c00bd1c:	00f58f33          	add	t5,a1,a5
1c00bd20:	00185813          	srli	a6,a6,0x1
1c00bd24:	00bf35b3          	sltu	a1,t5,a1
1c00bd28:	01058533          	add	a0,a1,a6
1c00bd2c:	882a                	mv	a6,a0
1c00bd2e:	85fa                	mv	a1,t5
1c00bd30:	0885                	addi	a7,a7,1
1c00bd32:	0004d363          	bgez	s1,1c00bd38 <pos_libc_prf+0x628>
1c00bd36:	4499                	li	s1,6
1c00bd38:	04700793          	li	a5,71
1c00bd3c:	0cfe8de3          	beq	t4,a5,1c00c616 <pos_libc_prf+0xf06>
1c00bd40:	06600793          	li	a5,102
1c00bd44:	4801                	li	a6,0
1c00bd46:	0efd86e3          	beq	s11,a5,1c00c632 <pos_libc_prf+0xf22>
1c00bd4a:	00148e93          	addi	t4,s1,1
1c00bd4e:	4741                	li	a4,16
1c00bd50:	04eeceb3          	p.min	t4,t4,a4
1c00bd54:	1efd                	addi	t4,t4,-1
1c00bd56:	4281                	li	t0,0
1c00bd58:	080006b7          	lui	a3,0x8000
1c00bd5c:	4f95                	li	t6,5
1c00bd5e:	0e85                	addi	t4,t4,1
1c00bd60:	02fec0fb          	lp.setup	x1,t4,1c00bdbe <pos_libc_prf+0x6ae>
1c00bd64:	00228713          	addi	a4,t0,2
1c00bd68:	005737b3          	sltu	a5,a4,t0
1c00bd6c:	97b6                	add	a5,a5,a3
1c00bd6e:	03f7d5b3          	divu	a1,a5,t6
1c00bd72:	00375613          	srli	a2,a4,0x3
1c00bd76:	00259693          	slli	a3,a1,0x2
1c00bd7a:	96ae                	add	a3,a3,a1
1c00bd7c:	8f95                	sub	a5,a5,a3
1c00bd7e:	07f6                	slli	a5,a5,0x1d
1c00bd80:	8e5d                	or	a2,a2,a5
1c00bd82:	03f65633          	divu	a2,a2,t6
1c00bd86:	00361693          	slli	a3,a2,0x3
1c00bd8a:	00561793          	slli	a5,a2,0x5
1c00bd8e:	97b6                	add	a5,a5,a3
1c00bd90:	40f707b3          	sub	a5,a4,a5
1c00bd94:	03f7d7b3          	divu	a5,a5,t6
1c00bd98:	8275                	srli	a2,a2,0x1d
1c00bd9a:	962e                	add	a2,a2,a1
1c00bd9c:	96be                	add	a3,a3,a5
1c00bd9e:	00f6b7b3          	sltu	a5,a3,a5
1c00bda2:	00c78733          	add	a4,a5,a2
1c00bda6:	01f71613          	slli	a2,a4,0x1f
1c00bdaa:	0016d793          	srli	a5,a3,0x1
1c00bdae:	8fd1                	or	a5,a5,a2
1c00bdb0:	fc16b6b3          	p.bclr	a3,a3,30,1
1c00bdb4:	00f682b3          	add	t0,a3,a5
1c00bdb8:	8305                	srli	a4,a4,0x1
1c00bdba:	00d2b6b3          	sltu	a3,t0,a3
1c00bdbe:	96ba                	add	a3,a3,a4
1c00bdc0:	005f07b3          	add	a5,t5,t0
1c00bdc4:	01e7bf33          	sltu	t5,a5,t5
1c00bdc8:	96aa                	add	a3,a3,a0
1c00bdca:	96fa                	add	a3,a3,t5
1c00bdcc:	f606b5b3          	p.bclr	a1,a3,27,0
1c00bdd0:	cdb9                	beqz	a1,1c00be2e <pos_libc_prf+0x71e>
1c00bdd2:	00278513          	addi	a0,a5,2
1c00bdd6:	00f537b3          	sltu	a5,a0,a5
1c00bdda:	97b6                	add	a5,a5,a3
1c00bddc:	4f15                	li	t5,5
1c00bdde:	03e7deb3          	divu	t4,a5,t5
1c00bde2:	00355693          	srli	a3,a0,0x3
1c00bde6:	0305                	addi	t1,t1,1
1c00bde8:	002e9593          	slli	a1,t4,0x2
1c00bdec:	95f6                	add	a1,a1,t4
1c00bdee:	8f8d                	sub	a5,a5,a1
1c00bdf0:	07f6                	slli	a5,a5,0x1d
1c00bdf2:	8edd                	or	a3,a3,a5
1c00bdf4:	03e6d6b3          	divu	a3,a3,t5
1c00bdf8:	00369593          	slli	a1,a3,0x3
1c00bdfc:	00569793          	slli	a5,a3,0x5
1c00be00:	97ae                	add	a5,a5,a1
1c00be02:	40f507b3          	sub	a5,a0,a5
1c00be06:	03e7d7b3          	divu	a5,a5,t5
1c00be0a:	82f5                	srli	a3,a3,0x1d
1c00be0c:	96f6                	add	a3,a3,t4
1c00be0e:	95be                	add	a1,a1,a5
1c00be10:	00f5b7b3          	sltu	a5,a1,a5
1c00be14:	96be                	add	a3,a3,a5
1c00be16:	01f69513          	slli	a0,a3,0x1f
1c00be1a:	0015d793          	srli	a5,a1,0x1
1c00be1e:	8fc9                	or	a5,a5,a0
1c00be20:	fc15b5b3          	p.bclr	a1,a1,30,1
1c00be24:	97ae                	add	a5,a5,a1
1c00be26:	8285                	srli	a3,a3,0x1
1c00be28:	00b7b5b3          	sltu	a1,a5,a1
1c00be2c:	96ae                	add	a3,a3,a1
1c00be2e:	06600593          	li	a1,102
1c00be32:	001e0513          	addi	a0,t3,1 # 400001 <__l1_heap_size+0x3f4129>
1c00be36:	1ebd87e3          	beq	s11,a1,1c00c824 <pos_libc_prf+0x1114>
1c00be3a:	01e7de93          	srli	t4,a5,0x1e
1c00be3e:	00279593          	slli	a1,a5,0x2
1c00be42:	00269893          	slli	a7,a3,0x2
1c00be46:	97ae                	add	a5,a5,a1
1c00be48:	011ee8b3          	or	a7,t4,a7
1c00be4c:	00b7b5b3          	sltu	a1,a5,a1
1c00be50:	96c6                	add	a3,a3,a7
1c00be52:	96ae                	add	a3,a3,a1
1c00be54:	0686                	slli	a3,a3,0x1
1c00be56:	01f7d593          	srli	a1,a5,0x1f
1c00be5a:	8ecd                	or	a3,a3,a1
1c00be5c:	01c6d593          	srli	a1,a3,0x1c
1c00be60:	4712                	lw	a4,4(sp)
1c00be62:	88ae                	mv	a7,a1
1c00be64:	03058593          	addi	a1,a1,48
1c00be68:	011038b3          	snez	a7,a7
1c00be6c:	00be0023          	sb	a1,0(t3)
1c00be70:	c7c6beb3          	p.bclr	t4,a3,3,28
1c00be74:	00179593          	slli	a1,a5,0x1
1c00be78:	41130333          	sub	t1,t1,a7
1c00be7c:	0a0719e3          	bnez	a4,1c00c72e <pos_libc_prf+0x101e>
1c00be80:	8ca6                	mv	s9,s1
1c00be82:	3c905d63          	blez	s1,1c00c25c <pos_libc_prf+0xb4c>
1c00be86:	02e00693          	li	a3,46
1c00be8a:	002e0793          	addi	a5,t3,2
1c00be8e:	00de00a3          	sb	a3,1(t3)
1c00be92:	00259693          	slli	a3,a1,0x2
1c00be96:	01e5d893          	srli	a7,a1,0x1e
1c00be9a:	002e9513          	slli	a0,t4,0x2
1c00be9e:	95b6                	add	a1,a1,a3
1c00bea0:	00a8e533          	or	a0,a7,a0
1c00bea4:	00d5b8b3          	sltu	a7,a1,a3
1c00bea8:	01d506b3          	add	a3,a0,t4
1c00beac:	98b6                	add	a7,a7,a3
1c00beae:	0886                	slli	a7,a7,0x1
1c00beb0:	01f5d693          	srli	a3,a1,0x1f
1c00beb4:	0116e8b3          	or	a7,a3,a7
1c00beb8:	01c8de13          	srli	t3,a7,0x1c
1c00bebc:	030e0e13          	addi	t3,t3,48
1c00bec0:	100006b7          	lui	a3,0x10000
1c00bec4:	fff68513          	addi	a0,a3,-1 # fffffff <__l1_heap_size+0xfff4127>
1c00bec8:	01c78023          	sb	t3,0(a5)
1c00becc:	00159e93          	slli	t4,a1,0x1
1c00bed0:	00a8f8b3          	and	a7,a7,a0
1c00bed4:	0014b463          	p.bneimm	s1,1,1c00bedc <pos_libc_prf+0x7cc>
1c00bed8:	3de0106f          	j	1c00d2b6 <pos_libc_prf+0x1ba6>
1c00bedc:	00359693          	slli	a3,a1,0x3
1c00bee0:	00289e13          	slli	t3,a7,0x2
1c00bee4:	01eedf13          	srli	t5,t4,0x1e
1c00bee8:	01d685b3          	add	a1,a3,t4
1c00beec:	01cf6e33          	or	t3,t5,t3
1c00bef0:	98f2                	add	a7,a7,t3
1c00bef2:	00d5b6b3          	sltu	a3,a1,a3
1c00bef6:	96c6                	add	a3,a3,a7
1c00bef8:	0686                	slli	a3,a3,0x1
1c00befa:	01f5d893          	srli	a7,a1,0x1f
1c00befe:	00d8e6b3          	or	a3,a7,a3
1c00bf02:	01c6d893          	srli	a7,a3,0x1c
1c00bf06:	03088893          	addi	a7,a7,48
1c00bf0a:	011780a3          	sb	a7,1(a5)
1c00bf0e:	ffe48c93          	addi	s9,s1,-2
1c00bf12:	00159e13          	slli	t3,a1,0x1
1c00bf16:	8ee9                	and	a3,a3,a0
1c00bf18:	01904463          	bgtz	s9,1c00bf20 <pos_libc_prf+0x810>
1c00bf1c:	3920106f          	j	1c00d2ae <pos_libc_prf+0x1b9e>
1c00bf20:	01ee5e93          	srli	t4,t3,0x1e
1c00bf24:	058e                	slli	a1,a1,0x3
1c00bf26:	00269893          	slli	a7,a3,0x2
1c00bf2a:	9e2e                	add	t3,t3,a1
1c00bf2c:	011ee8b3          	or	a7,t4,a7
1c00bf30:	96c6                	add	a3,a3,a7
1c00bf32:	00be35b3          	sltu	a1,t3,a1
1c00bf36:	95b6                	add	a1,a1,a3
1c00bf38:	0586                	slli	a1,a1,0x1
1c00bf3a:	01fe5693          	srli	a3,t3,0x1f
1c00bf3e:	8dd5                	or	a1,a1,a3
1c00bf40:	01c5d693          	srli	a3,a1,0x1c
1c00bf44:	03068693          	addi	a3,a3,48
1c00bf48:	00d78123          	sb	a3,2(a5)
1c00bf4c:	ffd48c93          	addi	s9,s1,-3
1c00bf50:	001e1e93          	slli	t4,t3,0x1
1c00bf54:	8de9                	and	a1,a1,a0
1c00bf56:	01904463          	bgtz	s9,1c00bf5e <pos_libc_prf+0x84e>
1c00bf5a:	34c0106f          	j	1c00d2a6 <pos_libc_prf+0x1b96>
1c00bf5e:	003e1693          	slli	a3,t3,0x3
1c00bf62:	00259893          	slli	a7,a1,0x2
1c00bf66:	01eede13          	srli	t3,t4,0x1e
1c00bf6a:	011e68b3          	or	a7,t3,a7
1c00bf6e:	9eb6                	add	t4,t4,a3
1c00bf70:	95c6                	add	a1,a1,a7
1c00bf72:	00deb6b3          	sltu	a3,t4,a3
1c00bf76:	96ae                	add	a3,a3,a1
1c00bf78:	0686                	slli	a3,a3,0x1
1c00bf7a:	01fed593          	srli	a1,t4,0x1f
1c00bf7e:	8ecd                	or	a3,a3,a1
1c00bf80:	01c6d593          	srli	a1,a3,0x1c
1c00bf84:	03058593          	addi	a1,a1,48
1c00bf88:	00b781a3          	sb	a1,3(a5)
1c00bf8c:	ffc48c93          	addi	s9,s1,-4
1c00bf90:	001e9e13          	slli	t3,t4,0x1
1c00bf94:	8ee9                	and	a3,a3,a0
1c00bf96:	01904463          	bgtz	s9,1c00bf9e <pos_libc_prf+0x88e>
1c00bf9a:	3040106f          	j	1c00d29e <pos_libc_prf+0x1b8e>
1c00bf9e:	003e9593          	slli	a1,t4,0x3
1c00bfa2:	00269893          	slli	a7,a3,0x2
1c00bfa6:	01ee5e93          	srli	t4,t3,0x1e
1c00bfaa:	011ee8b3          	or	a7,t4,a7
1c00bfae:	9e2e                	add	t3,t3,a1
1c00bfb0:	96c6                	add	a3,a3,a7
1c00bfb2:	00be35b3          	sltu	a1,t3,a1
1c00bfb6:	95b6                	add	a1,a1,a3
1c00bfb8:	0586                	slli	a1,a1,0x1
1c00bfba:	01fe5693          	srli	a3,t3,0x1f
1c00bfbe:	8dd5                	or	a1,a1,a3
1c00bfc0:	01c5d693          	srli	a3,a1,0x1c
1c00bfc4:	03068693          	addi	a3,a3,48
1c00bfc8:	00d78223          	sb	a3,4(a5)
1c00bfcc:	ffb48c93          	addi	s9,s1,-5
1c00bfd0:	001e1e93          	slli	t4,t3,0x1
1c00bfd4:	8de9                	and	a1,a1,a0
1c00bfd6:	01904463          	bgtz	s9,1c00bfde <pos_libc_prf+0x8ce>
1c00bfda:	2bc0106f          	j	1c00d296 <pos_libc_prf+0x1b86>
1c00bfde:	003e1693          	slli	a3,t3,0x3
1c00bfe2:	00259893          	slli	a7,a1,0x2
1c00bfe6:	01eede13          	srli	t3,t4,0x1e
1c00bfea:	011e68b3          	or	a7,t3,a7
1c00bfee:	9eb6                	add	t4,t4,a3
1c00bff0:	95c6                	add	a1,a1,a7
1c00bff2:	00deb6b3          	sltu	a3,t4,a3
1c00bff6:	96ae                	add	a3,a3,a1
1c00bff8:	0686                	slli	a3,a3,0x1
1c00bffa:	01fed593          	srli	a1,t4,0x1f
1c00bffe:	8ecd                	or	a3,a3,a1
1c00c000:	01c6d593          	srli	a1,a3,0x1c
1c00c004:	03058593          	addi	a1,a1,48
1c00c008:	00b782a3          	sb	a1,5(a5)
1c00c00c:	ffa48c93          	addi	s9,s1,-6
1c00c010:	001e9e13          	slli	t3,t4,0x1
1c00c014:	8ee9                	and	a3,a3,a0
1c00c016:	01904463          	bgtz	s9,1c00c01e <pos_libc_prf+0x90e>
1c00c01a:	2740106f          	j	1c00d28e <pos_libc_prf+0x1b7e>
1c00c01e:	003e9593          	slli	a1,t4,0x3
1c00c022:	00269893          	slli	a7,a3,0x2
1c00c026:	01ee5e93          	srli	t4,t3,0x1e
1c00c02a:	011ee8b3          	or	a7,t4,a7
1c00c02e:	9e2e                	add	t3,t3,a1
1c00c030:	96c6                	add	a3,a3,a7
1c00c032:	00be35b3          	sltu	a1,t3,a1
1c00c036:	95b6                	add	a1,a1,a3
1c00c038:	0586                	slli	a1,a1,0x1
1c00c03a:	01fe5693          	srli	a3,t3,0x1f
1c00c03e:	8dd5                	or	a1,a1,a3
1c00c040:	01c5d693          	srli	a3,a1,0x1c
1c00c044:	03068693          	addi	a3,a3,48
1c00c048:	00d78323          	sb	a3,6(a5)
1c00c04c:	ff948c93          	addi	s9,s1,-7
1c00c050:	001e1e93          	slli	t4,t3,0x1
1c00c054:	8de9                	and	a1,a1,a0
1c00c056:	01904463          	bgtz	s9,1c00c05e <pos_libc_prf+0x94e>
1c00c05a:	22c0106f          	j	1c00d286 <pos_libc_prf+0x1b76>
1c00c05e:	003e1693          	slli	a3,t3,0x3
1c00c062:	00259893          	slli	a7,a1,0x2
1c00c066:	01eede13          	srli	t3,t4,0x1e
1c00c06a:	011e68b3          	or	a7,t3,a7
1c00c06e:	9eb6                	add	t4,t4,a3
1c00c070:	95c6                	add	a1,a1,a7
1c00c072:	00deb6b3          	sltu	a3,t4,a3
1c00c076:	96ae                	add	a3,a3,a1
1c00c078:	0686                	slli	a3,a3,0x1
1c00c07a:	01fed593          	srli	a1,t4,0x1f
1c00c07e:	8ecd                	or	a3,a3,a1
1c00c080:	01c6d593          	srli	a1,a3,0x1c
1c00c084:	03058593          	addi	a1,a1,48
1c00c088:	00b783a3          	sb	a1,7(a5)
1c00c08c:	ff848c93          	addi	s9,s1,-8
1c00c090:	001e9e13          	slli	t3,t4,0x1
1c00c094:	8ee9                	and	a3,a3,a0
1c00c096:	01904463          	bgtz	s9,1c00c09e <pos_libc_prf+0x98e>
1c00c09a:	1e40106f          	j	1c00d27e <pos_libc_prf+0x1b6e>
1c00c09e:	003e9593          	slli	a1,t4,0x3
1c00c0a2:	00269893          	slli	a7,a3,0x2
1c00c0a6:	01ee5e93          	srli	t4,t3,0x1e
1c00c0aa:	011ee8b3          	or	a7,t4,a7
1c00c0ae:	9e2e                	add	t3,t3,a1
1c00c0b0:	96c6                	add	a3,a3,a7
1c00c0b2:	00be35b3          	sltu	a1,t3,a1
1c00c0b6:	95b6                	add	a1,a1,a3
1c00c0b8:	0586                	slli	a1,a1,0x1
1c00c0ba:	01fe5693          	srli	a3,t3,0x1f
1c00c0be:	8dd5                	or	a1,a1,a3
1c00c0c0:	01c5d693          	srli	a3,a1,0x1c
1c00c0c4:	03068693          	addi	a3,a3,48
1c00c0c8:	00d78423          	sb	a3,8(a5)
1c00c0cc:	ff748c93          	addi	s9,s1,-9
1c00c0d0:	001e1e93          	slli	t4,t3,0x1
1c00c0d4:	8de9                	and	a1,a1,a0
1c00c0d6:	01904463          	bgtz	s9,1c00c0de <pos_libc_prf+0x9ce>
1c00c0da:	19c0106f          	j	1c00d276 <pos_libc_prf+0x1b66>
1c00c0de:	003e1693          	slli	a3,t3,0x3
1c00c0e2:	00259893          	slli	a7,a1,0x2
1c00c0e6:	01eedf13          	srli	t5,t4,0x1e
1c00c0ea:	01d68e33          	add	t3,a3,t4
1c00c0ee:	011f68b3          	or	a7,t5,a7
1c00c0f2:	98ae                	add	a7,a7,a1
1c00c0f4:	00de36b3          	sltu	a3,t3,a3
1c00c0f8:	96c6                	add	a3,a3,a7
1c00c0fa:	01fe5593          	srli	a1,t3,0x1f
1c00c0fe:	0686                	slli	a3,a3,0x1
1c00c100:	8ecd                	or	a3,a3,a1
1c00c102:	01c6d593          	srli	a1,a3,0x1c
1c00c106:	03058593          	addi	a1,a1,48
1c00c10a:	00b784a3          	sb	a1,9(a5)
1c00c10e:	ff648c93          	addi	s9,s1,-10
1c00c112:	8ee9                	and	a3,a3,a0
1c00c114:	001e1593          	slli	a1,t3,0x1
1c00c118:	00a78513          	addi	a0,a5,10
1c00c11c:	15905063          	blez	s9,1c00c25c <pos_libc_prf+0xb4c>
1c00c120:	00259513          	slli	a0,a1,0x2
1c00c124:	01e5d893          	srli	a7,a1,0x1e
1c00c128:	00269e13          	slli	t3,a3,0x2
1c00c12c:	95aa                	add	a1,a1,a0
1c00c12e:	01c8ee33          	or	t3,a7,t3
1c00c132:	96f2                	add	a3,a3,t3
1c00c134:	00a5b8b3          	sltu	a7,a1,a0
1c00c138:	98b6                	add	a7,a7,a3
1c00c13a:	0886                	slli	a7,a7,0x1
1c00c13c:	01f5d693          	srli	a3,a1,0x1f
1c00c140:	0116e8b3          	or	a7,a3,a7
1c00c144:	01c8de13          	srli	t3,a7,0x1c
1c00c148:	030e0e13          	addi	t3,t3,48
1c00c14c:	100006b7          	lui	a3,0x10000
1c00c150:	fff68513          	addi	a0,a3,-1 # fffffff <__l1_heap_size+0xfff4127>
1c00c154:	01c78523          	sb	t3,10(a5)
1c00c158:	ff548c93          	addi	s9,s1,-11
1c00c15c:	00159e93          	slli	t4,a1,0x1
1c00c160:	00a8f8b3          	and	a7,a7,a0
1c00c164:	01904463          	bgtz	s9,1c00c16c <pos_libc_prf+0xa5c>
1c00c168:	1060106f          	j	1c00d26e <pos_libc_prf+0x1b5e>
1c00c16c:	00359693          	slli	a3,a1,0x3
1c00c170:	00289e13          	slli	t3,a7,0x2
1c00c174:	01eedf13          	srli	t5,t4,0x1e
1c00c178:	01d685b3          	add	a1,a3,t4
1c00c17c:	01cf6e33          	or	t3,t5,t3
1c00c180:	98f2                	add	a7,a7,t3
1c00c182:	00d5b6b3          	sltu	a3,a1,a3
1c00c186:	96c6                	add	a3,a3,a7
1c00c188:	0686                	slli	a3,a3,0x1
1c00c18a:	01f5d893          	srli	a7,a1,0x1f
1c00c18e:	00d8e6b3          	or	a3,a7,a3
1c00c192:	01c6d893          	srli	a7,a3,0x1c
1c00c196:	03088893          	addi	a7,a7,48
1c00c19a:	011785a3          	sb	a7,11(a5)
1c00c19e:	ff448c93          	addi	s9,s1,-12
1c00c1a2:	00159e13          	slli	t3,a1,0x1
1c00c1a6:	8ee9                	and	a3,a3,a0
1c00c1a8:	01904463          	bgtz	s9,1c00c1b0 <pos_libc_prf+0xaa0>
1c00c1ac:	0ba0106f          	j	1c00d266 <pos_libc_prf+0x1b56>
1c00c1b0:	058e                	slli	a1,a1,0x3
1c00c1b2:	01ee5e93          	srli	t4,t3,0x1e
1c00c1b6:	00269893          	slli	a7,a3,0x2
1c00c1ba:	9e2e                	add	t3,t3,a1
1c00c1bc:	011ee8b3          	or	a7,t4,a7
1c00c1c0:	96c6                	add	a3,a3,a7
1c00c1c2:	00be35b3          	sltu	a1,t3,a1
1c00c1c6:	95b6                	add	a1,a1,a3
1c00c1c8:	0586                	slli	a1,a1,0x1
1c00c1ca:	01fe5693          	srli	a3,t3,0x1f
1c00c1ce:	8dd5                	or	a1,a1,a3
1c00c1d0:	01c5d693          	srli	a3,a1,0x1c
1c00c1d4:	03068693          	addi	a3,a3,48
1c00c1d8:	00d78623          	sb	a3,12(a5)
1c00c1dc:	ff348c93          	addi	s9,s1,-13
1c00c1e0:	001e1893          	slli	a7,t3,0x1
1c00c1e4:	01904463          	bgtz	s9,1c00c1ec <pos_libc_prf+0xadc>
1c00c1e8:	0760106f          	j	1c00d25e <pos_libc_prf+0x1b4e>
1c00c1ec:	8de9                	and	a1,a1,a0
1c00c1ee:	003e1693          	slli	a3,t3,0x3
1c00c1f2:	01e8de93          	srli	t4,a7,0x1e
1c00c1f6:	00259e13          	slli	t3,a1,0x2
1c00c1fa:	98b6                	add	a7,a7,a3
1c00c1fc:	01ceee33          	or	t3,t4,t3
1c00c200:	95f2                	add	a1,a1,t3
1c00c202:	00d8b6b3          	sltu	a3,a7,a3
1c00c206:	96ae                	add	a3,a3,a1
1c00c208:	0686                	slli	a3,a3,0x1
1c00c20a:	01f8d593          	srli	a1,a7,0x1f
1c00c20e:	8ecd                	or	a3,a3,a1
1c00c210:	01c6d593          	srli	a1,a3,0x1c
1c00c214:	03058593          	addi	a1,a1,48
1c00c218:	00b786a3          	sb	a1,13(a5)
1c00c21c:	ff248c93          	addi	s9,s1,-14
1c00c220:	8ee9                	and	a3,a3,a0
1c00c222:	00189593          	slli	a1,a7,0x1
1c00c226:	00e78513          	addi	a0,a5,14
1c00c22a:	03905963          	blez	s9,1c00c25c <pos_libc_prf+0xb4c>
1c00c22e:	00389513          	slli	a0,a7,0x3
1c00c232:	01e5de13          	srli	t3,a1,0x1e
1c00c236:	00269893          	slli	a7,a3,0x2
1c00c23a:	95aa                	add	a1,a1,a0
1c00c23c:	011e68b3          	or	a7,t3,a7
1c00c240:	00a5b5b3          	sltu	a1,a1,a0
1c00c244:	96c6                	add	a3,a3,a7
1c00c246:	96ae                	add	a3,a3,a1
1c00c248:	0686                	slli	a3,a3,0x1
1c00c24a:	82f1                	srli	a3,a3,0x1c
1c00c24c:	03068693          	addi	a3,a3,48
1c00c250:	00f78513          	addi	a0,a5,15
1c00c254:	00d78723          	sb	a3,14(a5)
1c00c258:	ff148c93          	addi	s9,s1,-15
1c00c25c:	44080a63          	beqz	a6,1c00c6b0 <pos_libc_prf+0xfa0>
1c00c260:	4581                	li	a1,0
1c00c262:	cc02                	sw	zero,24(sp)
1c00c264:	4a01                	li	s4,0
1c00c266:	03000813          	li	a6,48
1c00c26a:	a011                	j	1c00c26e <pos_libc_prf+0xb5e>
1c00c26c:	853e                	mv	a0,a5
1c00c26e:	fff50793          	addi	a5,a0,-1
1c00c272:	0007c683          	lbu	a3,0(a5)
1c00c276:	ff068be3          	beq	a3,a6,1c00c26c <pos_libc_prf+0xb5c>
1c00c27a:	02e00813          	li	a6,46
1c00c27e:	4c81                	li	s9,0
1c00c280:	01069363          	bne	a3,a6,1c00c286 <pos_libc_prf+0xb76>
1c00c284:	853e                	mv	a0,a5
1c00c286:	0dfdf793          	andi	a5,s11,223
1c00c28a:	04500693          	li	a3,69
1c00c28e:	3cd78363          	beq	a5,a3,1c00c654 <pos_libc_prf+0xf44>
1c00c292:	4782                	lw	a5,0(sp)
1c00c294:	00050023          	sb	zero,0(a0)
1c00c298:	8d1d                	sub	a0,a0,a5
1c00c29a:	4732                	lw	a4,12(sp)
1c00c29c:	2a071763          	bnez	a4,1c00c54a <pos_libc_prf+0xe3a>
1c00c2a0:	47c2                	lw	a5,16(sp)
1c00c2a2:	2a079463          	bnez	a5,1c00c54a <pos_libc_prf+0xe3a>
1c00c2a6:	02414783          	lbu	a5,36(sp)
1c00c2aa:	02d00693          	li	a3,45
1c00c2ae:	c202                	sw	zero,4(sp)
1c00c2b0:	28d78d63          	beq	a5,a3,1c00c54a <pos_libc_prf+0xe3a>
1c00c2b4:	fd078793          	addi	a5,a5,-48
1c00c2b8:	46a5                	li	a3,9
1c00c2ba:	00b50933          	add	s2,a0,a1
1c00c2be:	a2f6f2e3          	bleu	a5,a3,1c00bce2 <pos_libc_prf+0x5d2>
1c00c2c2:	412b0b33          	sub	s6,s6,s2
1c00c2c6:	1040                	addi	s0,sp,36
1c00c2c8:	4481                	li	s1,0
1c00c2ca:	eeaff06f          	j	1c00b9b4 <pos_libc_prf+0x2a4>
1c00c2ce:	000a2783          	lw	a5,0(s4)
1c00c2d2:	0a11                	addi	s4,s4,4
1c00c2d4:	ce52                	sw	s4,28(sp)
1c00c2d6:	1b7d                	addi	s6,s6,-1
1c00c2d8:	02f10223          	sb	a5,36(sp)
1c00c2dc:	4481                	li	s1,0
1c00c2de:	c202                	sw	zero,4(sp)
1c00c2e0:	4905                	li	s2,1
1c00c2e2:	1040                	addi	s0,sp,36
1c00c2e4:	ecaff06f          	j	1c00b9ae <pos_libc_prf+0x29e>
1c00c2e8:	04c00613          	li	a2,76
1c00c2ec:	004a268b          	p.lw	a3,4(s4!)
1c00c2f0:	5cc783e3          	beq	a5,a2,1c00d0b6 <pos_libc_prf+0x19a6>
1c00c2f4:	28f65863          	ble	a5,a2,1c00c584 <pos_libc_prf+0xe74>
1c00c2f8:	06800613          	li	a2,104
1c00c2fc:	00c78663          	beq	a5,a2,1c00c308 <pos_libc_prf+0xbf8>
1c00c300:	0156a023          	sw	s5,0(a3)
1c00c304:	c4aff06f          	j	1c00b74e <pos_libc_prf+0x3e>
1c00c308:	87d6                	mv	a5,s5
1c00c30a:	00f69023          	sh	a5,0(a3)
1c00c30e:	c40ff06f          	j	1c00b74e <pos_libc_prf+0x3e>
1c00c312:	004a0793          	addi	a5,s4,4
1c00c316:	ce3e                	sw	a5,28(sp)
1c00c318:	7761                	lui	a4,0xffff8
1c00c31a:	000a2783          	lw	a5,0(s4)
1c00c31e:	02610593          	addi	a1,sp,38
1c00c322:	83074713          	xori	a4,a4,-2000
1c00c326:	4601                	li	a2,0
1c00c328:	02e11223          	sh	a4,36(sp)
1c00c32c:	86ae                	mv	a3,a1
1c00c32e:	4ea5                	li	t4,9
1c00c330:	f647b733          	p.bclr	a4,a5,27,4
1c00c334:	01c61513          	slli	a0,a2,0x1c
1c00c338:	8391                	srli	a5,a5,0x4
1c00c33a:	8fc9                	or	a5,a5,a0
1c00c33c:	8211                	srli	a2,a2,0x4
1c00c33e:	05770e13          	addi	t3,a4,87 # ffff8057 <pulp__FC+0xffff8058>
1c00c342:	03070893          	addi	a7,a4,48
1c00c346:	00c7e333          	or	t1,a5,a2
1c00c34a:	00eefa63          	bleu	a4,t4,1c00c35e <pos_libc_prf+0xc4e>
1c00c34e:	01c68023          	sb	t3,0(a3)
1c00c352:	00168513          	addi	a0,a3,1
1c00c356:	00030a63          	beqz	t1,1c00c36a <pos_libc_prf+0xc5a>
1c00c35a:	86aa                	mv	a3,a0
1c00c35c:	bfd1                	j	1c00c330 <pos_libc_prf+0xc20>
1c00c35e:	01168023          	sb	a7,0(a3)
1c00c362:	00168513          	addi	a0,a3,1
1c00c366:	fe031ae3          	bnez	t1,1c00c35a <pos_libc_prf+0xc4a>
1c00c36a:	00050023          	sb	zero,0(a0)
1c00c36e:	8d0d                	sub	a0,a0,a1
1c00c370:	00d5fe63          	bleu	a3,a1,1c00c38c <pos_libc_prf+0xc7c>
1c00c374:	87b6                	mv	a5,a3
1c00c376:	86ae                	mv	a3,a1
1c00c378:	0006c603          	lbu	a2,0(a3)
1c00c37c:	0007c703          	lbu	a4,0(a5)
1c00c380:	fec78fab          	p.sb	a2,-1(a5!)
1c00c384:	00e680ab          	p.sb	a4,1(a3!)
1c00c388:	fef6e8e3          	bltu	a3,a5,1c00c378 <pos_libc_prf+0xc68>
1c00c38c:	4789                	li	a5,2
1c00c38e:	00250913          	addi	s2,a0,2
1c00c392:	c23e                	sw	a5,4(sp)
1c00c394:	e00ff06f          	j	1c00b994 <pos_libc_prf+0x284>
1c00c398:	85de                	mv	a1,s7
1c00c39a:	02500513          	li	a0,37
1c00c39e:	9982                	jalr	s3
1c00c3a0:	cff52363          	p.beqimm	a0,-1,1c00b886 <pos_libc_prf+0x176>
1c00c3a4:	85de                	mv	a1,s7
1c00c3a6:	856e                	mv	a0,s11
1c00c3a8:	9982                	jalr	s3
1c00c3aa:	cdf52e63          	p.beqimm	a0,-1,1c00b886 <pos_libc_prf+0x176>
1c00c3ae:	0a89                	addi	s5,s5,2
1c00c3b0:	b9eff06f          	j	1c00b74e <pos_libc_prf+0x3e>
1c00c3b4:	007a0513          	addi	a0,s4,7
1c00c3b8:	c4053533          	p.bclr	a0,a0,2,0
1c00c3bc:	411c                	lw	a5,0(a0)
1c00c3be:	00452303          	lw	t1,4(a0)
1c00c3c2:	0521                	addi	a0,a0,8
1c00c3c4:	0157d693          	srli	a3,a5,0x15
1c00c3c8:	00b31813          	slli	a6,t1,0xb
1c00c3cc:	01435893          	srli	a7,t1,0x14
1c00c3d0:	0106e833          	or	a6,a3,a6
1c00c3d4:	ce2a                	sw	a0,28(sp)
1c00c3d6:	e8b8b8b3          	p.bclr	a7,a7,20,11
1c00c3da:	00b79593          	slli	a1,a5,0xb
1c00c3de:	c1f83833          	p.bclr	a6,a6,0,31
1c00c3e2:	20034363          	bltz	t1,1c00c5e8 <pos_libc_prf+0xed8>
1c00c3e6:	47b2                	lw	a5,12(sp)
1c00c3e8:	1e078463          	beqz	a5,1c00c5d0 <pos_libc_prf+0xec0>
1c00c3ec:	02b00793          	li	a5,43
1c00c3f0:	02f10223          	sb	a5,36(sp)
1c00c3f4:	02510e13          	addi	t3,sp,37
1c00c3f8:	7ff00793          	li	a5,2047
1c00c3fc:	18f88d63          	beq	a7,a5,1c00c596 <pos_libc_prf+0xe86>
1c00c400:	04600793          	li	a5,70
1c00c404:	0dfdfe93          	andi	t4,s11,223
1c00c408:	34fd8363          	beq	s11,a5,1c00c74e <pos_libc_prf+0x103e>
1c00c40c:	41f8d693          	srai	a3,a7,0x1f
1c00c410:	00b8e7b3          	or	a5,a7,a1
1c00c414:	0106e6b3          	or	a3,a3,a6
1c00c418:	8fd5                	or	a5,a5,a3
1c00c41a:	8e0781e3          	beqz	a5,1c00bcfc <pos_libc_prf+0x5ec>
1c00c41e:	02089463          	bnez	a7,1c00c446 <pos_libc_prf+0xd36>
1c00c422:	01f5d793          	srli	a5,a1,0x1f
1c00c426:	00181693          	slli	a3,a6,0x1
1c00c42a:	00d7e833          	or	a6,a5,a3
1c00c42e:	0586                	slli	a1,a1,0x1
1c00c430:	5c0843e3          	bltz	a6,1c00d1f6 <pos_libc_prf+0x1ae6>
1c00c434:	01f5d793          	srli	a5,a1,0x1f
1c00c438:	0806                	slli	a6,a6,0x1
1c00c43a:	0107e833          	or	a6,a5,a6
1c00c43e:	18fd                	addi	a7,a7,-1
1c00c440:	0586                	slli	a1,a1,0x1
1c00c442:	fe0859e3          	bgez	a6,1c00c434 <pos_libc_prf+0xd24>
1c00c446:	c0288893          	addi	a7,a7,-1022
1c00c44a:	57f9                	li	a5,-2
1c00c44c:	c1f84833          	p.bset	a6,a6,0,31
1c00c450:	4301                	li	t1,0
1c00c452:	06f8d863          	ble	a5,a7,1c00c4c2 <pos_libc_prf+0xdb2>
1c00c456:	33333537          	lui	a0,0x33333
1c00c45a:	80000f37          	lui	t5,0x80000
1c00c45e:	4301                	li	t1,0
1c00c460:	33250513          	addi	a0,a0,818 # 33333332 <__l2_shared_end+0x1731f086>
1c00c464:	ffff4f13          	not	t5,t5
1c00c468:	5ff9                	li	t6,-2
1c00c46a:	a011                	j	1c00c46e <pos_libc_prf+0xd5e>
1c00c46c:	88be                	mv	a7,a5
1c00c46e:	01f81693          	slli	a3,a6,0x1f
1c00c472:	0015d713          	srli	a4,a1,0x1
1c00c476:	fc15b7b3          	p.bclr	a5,a1,30,1
1c00c47a:	8f55                	or	a4,a4,a3
1c00c47c:	00e785b3          	add	a1,a5,a4
1c00c480:	00f5b7b3          	sltu	a5,a1,a5
1c00c484:	00185813          	srli	a6,a6,0x1
1c00c488:	983e                	add	a6,a6,a5
1c00c48a:	00188793          	addi	a5,a7,1
1c00c48e:	fd056fe3          	bltu	a0,a6,1c00c46c <pos_libc_prf+0xd5c>
1c00c492:	00259693          	slli	a3,a1,0x2
1c00c496:	01e5d613          	srli	a2,a1,0x1e
1c00c49a:	00281713          	slli	a4,a6,0x2
1c00c49e:	95b6                	add	a1,a1,a3
1c00c4a0:	8f51                	or	a4,a4,a2
1c00c4a2:	983a                	add	a6,a6,a4
1c00c4a4:	00d5b6b3          	sltu	a3,a1,a3
1c00c4a8:	9836                	add	a6,a6,a3
1c00c4aa:	01f5d713          	srli	a4,a1,0x1f
1c00c4ae:	0889                	addi	a7,a7,2
1c00c4b0:	137d                	addi	t1,t1,-1
1c00c4b2:	01e81663          	bne	a6,t5,1c00c4be <pos_libc_prf+0xdae>
1c00c4b6:	0586                	slli	a1,a1,0x1
1c00c4b8:	fc174833          	p.bset	a6,a4,30,1
1c00c4bc:	88be                	mv	a7,a5
1c00c4be:	fbf8c8e3          	blt	a7,t6,1c00c46e <pos_libc_prf+0xd5e>
1c00c4c2:	80000f37          	lui	t5,0x80000
1c00c4c6:	4f95                	li	t6,5
1c00c4c8:	ffff4f13          	not	t5,t5
1c00c4cc:	83105ce3          	blez	a7,1c00bd04 <pos_libc_prf+0x5f4>
1c00c4d0:	00258693          	addi	a3,a1,2
1c00c4d4:	00b6b5b3          	sltu	a1,a3,a1
1c00c4d8:	982e                	add	a6,a6,a1
1c00c4da:	03f857b3          	divu	a5,a6,t6
1c00c4de:	0036d613          	srli	a2,a3,0x3
1c00c4e2:	18fd                	addi	a7,a7,-1
1c00c4e4:	0305                	addi	t1,t1,1
1c00c4e6:	00279713          	slli	a4,a5,0x2
1c00c4ea:	973e                	add	a4,a4,a5
1c00c4ec:	40e80833          	sub	a6,a6,a4
1c00c4f0:	01d81713          	slli	a4,a6,0x1d
1c00c4f4:	8e59                	or	a2,a2,a4
1c00c4f6:	03f65633          	divu	a2,a2,t6
1c00c4fa:	00361593          	slli	a1,a2,0x3
1c00c4fe:	00561713          	slli	a4,a2,0x5
1c00c502:	972e                	add	a4,a4,a1
1c00c504:	40e68733          	sub	a4,a3,a4
1c00c508:	03f75733          	divu	a4,a4,t6
1c00c50c:	8275                	srli	a2,a2,0x1d
1c00c50e:	97b2                	add	a5,a5,a2
1c00c510:	95ba                	add	a1,a1,a4
1c00c512:	00e5b733          	sltu	a4,a1,a4
1c00c516:	00f70833          	add	a6,a4,a5
1c00c51a:	01f5d793          	srli	a5,a1,0x1f
1c00c51e:	0806                	slli	a6,a6,0x1
1c00c520:	0107e833          	or	a6,a5,a6
1c00c524:	0586                	slli	a1,a1,0x1
1c00c526:	18fd                	addi	a7,a7,-1
1c00c528:	ff0f79e3          	bleu	a6,t5,1c00c51a <pos_libc_prf+0xe0a>
1c00c52c:	b745                	j	1c00c4cc <pos_libc_prf+0xdbc>
1c00c52e:	001d4d83          	lbu	s11,1(s10)
1c00c532:	04c00793          	li	a5,76
1c00c536:	0d09                	addi	s10,s10,2
1c00c538:	ad0ff06f          	j	1c00b808 <pos_libc_prf+0xf8>
1c00c53c:	001d4d83          	lbu	s11,1(s10)
1c00c540:	04800793          	li	a5,72
1c00c544:	0d09                	addi	s10,s10,2
1c00c546:	ac2ff06f          	j	1c00b808 <pos_libc_prf+0xf8>
1c00c54a:	4705                	li	a4,1
1c00c54c:	02514783          	lbu	a5,37(sp)
1c00c550:	c23a                	sw	a4,4(sp)
1c00c552:	b38d                	j	1c00c2b4 <pos_libc_prf+0xba4>
1c00c554:	004a0793          	addi	a5,s4,4
1c00c558:	ce3e                	sw	a5,28(sp)
1c00c55a:	000a2403          	lw	s0,0(s4)
1c00c55e:	4c81                	li	s9,0
1c00c560:	e8cff06f          	j	1c00bbec <pos_libc_prf+0x4dc>
1c00c564:	4785                	li	a5,1
1c00c566:	c23e                	sw	a5,4(sp)
1c00c568:	c2cff06f          	j	1c00b994 <pos_libc_prf+0x284>
1c00c56c:	4742                	lw	a4,16(sp)
1c00c56e:	22070063          	beqz	a4,1c00c78e <pos_libc_prf+0x107e>
1c00c572:	02000693          	li	a3,32
1c00c576:	02d10223          	sb	a3,36(sp)
1c00c57a:	4c92                	lw	s9,4(sp)
1c00c57c:	02510a13          	addi	s4,sp,37
1c00c580:	ba6ff06f          	j	1c00b926 <pos_libc_prf+0x216>
1c00c584:	04800613          	li	a2,72
1c00c588:	d6c79ce3          	bne	a5,a2,1c00c300 <pos_libc_prf+0xbf0>
1c00c58c:	87d6                	mv	a5,s5
1c00c58e:	00f68023          	sb	a5,0(a3)
1c00c592:	9bcff06f          	j	1c00b74e <pos_libc_prf+0x3e>
1c00c596:	0105e6b3          	or	a3,a1,a6
1c00c59a:	fbfd8613          	addi	a2,s11,-65
1c00c59e:	003e0513          	addi	a0,t3,3
1c00c5a2:	47e5                	li	a5,25
1c00c5a4:	16069963          	bnez	a3,1c00c716 <pos_libc_prf+0x1006>
1c00c5a8:	3ec7e1e3          	bltu	a5,a2,1c00d18a <pos_libc_prf+0x1a7a>
1c00c5ac:	6795                	lui	a5,0x5
1c00c5ae:	e4978793          	addi	a5,a5,-439 # 4e49 <_l1_preload_size+0xd25>
1c00c5b2:	00fe1023          	sh	a5,0(t3)
1c00c5b6:	04600793          	li	a5,70
1c00c5ba:	00fe0123          	sb	a5,2(t3)
1c00c5be:	4782                	lw	a5,0(sp)
1c00c5c0:	000e01a3          	sb	zero,3(t3)
1c00c5c4:	4581                	li	a1,0
1c00c5c6:	8d1d                	sub	a0,a0,a5
1c00c5c8:	4c81                	li	s9,0
1c00c5ca:	cc02                	sw	zero,24(sp)
1c00c5cc:	4a01                	li	s4,0
1c00c5ce:	b1f1                	j	1c00c29a <pos_libc_prf+0xb8a>
1c00c5d0:	4742                	lw	a4,16(sp)
1c00c5d2:	02410e13          	addi	t3,sp,36
1c00c5d6:	e20701e3          	beqz	a4,1c00c3f8 <pos_libc_prf+0xce8>
1c00c5da:	02000793          	li	a5,32
1c00c5de:	02f10223          	sb	a5,36(sp)
1c00c5e2:	02510e13          	addi	t3,sp,37
1c00c5e6:	bd09                	j	1c00c3f8 <pos_libc_prf+0xce8>
1c00c5e8:	02d00793          	li	a5,45
1c00c5ec:	02f10223          	sb	a5,36(sp)
1c00c5f0:	02510e13          	addi	t3,sp,37
1c00c5f4:	b511                	j	1c00c3f8 <pos_libc_prf+0xce8>
1c00c5f6:	40f007b3          	neg	a5,a5
1c00c5fa:	00f036b3          	snez	a3,a5
1c00c5fe:	40e00cb3          	neg	s9,a4
1c00c602:	02d00613          	li	a2,45
1c00c606:	02c10223          	sb	a2,36(sp)
1c00c60a:	40dc8cb3          	sub	s9,s9,a3
1c00c60e:	02510a13          	addi	s4,sp,37
1c00c612:	b14ff06f          	j	1c00b926 <pos_libc_prf+0x216>
1c00c616:	57f5                	li	a5,-3
1c00c618:	0cf34063          	blt	t1,a5,1c00c6d8 <pos_libc_prf+0xfc8>
1c00c61c:	0a64ce63          	blt	s1,t1,1c00c6d8 <pos_libc_prf+0xfc8>
1c00c620:	4792                	lw	a5,4(sp)
1c00c622:	406484b3          	sub	s1,s1,t1
1c00c626:	4801                	li	a6,0
1c00c628:	e789                	bnez	a5,1c00c632 <pos_libc_prf+0xf22>
1c00c62a:	00902833          	sgtz	a6,s1
1c00c62e:	0ff87813          	andi	a6,a6,255
1c00c632:	009307b3          	add	a5,t1,s1
1c00c636:	2e07cae3          	bltz	a5,1c00d12a <pos_libc_prf+0x1a1a>
1c00c63a:	4741                	li	a4,16
1c00c63c:	04e7ceb3          	p.min	t4,a5,a4
1c00c640:	1efd                	addi	t4,t4,-1
1c00c642:	06600d93          	li	s11,102
1c00c646:	f0079863          	bnez	a5,1c00bd56 <pos_libc_prf+0x646>
1c00c64a:	4281                	li	t0,0
1c00c64c:	080006b7          	lui	a3,0x8000
1c00c650:	f70ff06f          	j	1c00bdc0 <pos_libc_prf+0x6b0>
1c00c654:	86aa                	mv	a3,a0
1c00c656:	01b6812b          	p.sb	s11,2(a3!) # 8000002 <__l1_heap_size+0x7ff412a>
1c00c65a:	240346e3          	bltz	t1,1c00d0a6 <pos_libc_prf+0x1996>
1c00c65e:	02b00793          	li	a5,43
1c00c662:	00f500a3          	sb	a5,1(a0)
1c00c666:	06300793          	li	a5,99
1c00c66a:	0067de63          	ble	t1,a5,1c00c686 <pos_libc_prf+0xf76>
1c00c66e:	06400613          	li	a2,100
1c00c672:	02c347b3          	div	a5,t1,a2
1c00c676:	00350693          	addi	a3,a0,3
1c00c67a:	02c36333          	rem	t1,t1,a2
1c00c67e:	03078793          	addi	a5,a5,48
1c00c682:	00f50123          	sb	a5,2(a0)
1c00c686:	47a9                	li	a5,10
1c00c688:	8536                	mv	a0,a3
1c00c68a:	02f34633          	div	a2,t1,a5
1c00c68e:	02f367b3          	rem	a5,t1,a5
1c00c692:	03060613          	addi	a2,a2,48 # 1a100030 <__l1_end+0xa0fbf08>
1c00c696:	00c5012b          	p.sb	a2,2(a0!)
1c00c69a:	03078793          	addi	a5,a5,48
1c00c69e:	00f680a3          	sb	a5,1(a3)
1c00c6a2:	bec5                	j	1c00c292 <pos_libc_prf+0xb82>
1c00c6a4:	800004b7          	lui	s1,0x80000
1c00c6a8:	fff4c493          	not	s1,s1
1c00c6ac:	c36ff06f          	j	1c00bae2 <pos_libc_prf+0x3d2>
1c00c6b0:	85e6                	mv	a1,s9
1c00c6b2:	cc02                	sw	zero,24(sp)
1c00c6b4:	4a01                	li	s4,0
1c00c6b6:	bec1                	j	1c00c286 <pos_libc_prf+0xb76>
1c00c6b8:	4901                	li	s2,0
1c00c6ba:	1054                	addi	a3,sp,36
1c00c6bc:	d5aff06f          	j	1c00bc16 <pos_libc_prf+0x506>
1c00c6c0:	007a0793          	addi	a5,s4,7
1c00c6c4:	c407b7b3          	p.bclr	a5,a5,2,0
1c00c6c8:	00878713          	addi	a4,a5,8
1c00c6cc:	ce3a                	sw	a4,28(sp)
1c00c6ce:	4380                	lw	s0,0(a5)
1c00c6d0:	0047ac83          	lw	s9,4(a5)
1c00c6d4:	d18ff06f          	j	1c00bbec <pos_libc_prf+0x4dc>
1c00c6d8:	ffed8613          	addi	a2,s11,-2
1c00c6dc:	0ff67d93          	andi	s11,a2,255
1c00c6e0:	220486e3          	beqz	s1,1c00d10c <pos_libc_prf+0x19fc>
1c00c6e4:	4712                	lw	a4,4(sp)
1c00c6e6:	fff48793          	addi	a5,s1,-1 # 7fffffff <pulp__FC+0x80000000>
1c00c6ea:	1e071fe3          	bnez	a4,1c00d0e8 <pos_libc_prf+0x19d8>
1c00c6ee:	00f02833          	sgtz	a6,a5
1c00c6f2:	0ff87813          	andi	a6,a6,255
1c00c6f6:	84be                	mv	s1,a5
1c00c6f8:	e52ff06f          	j	1c00bd4a <pos_libc_prf+0x63a>
1c00c6fc:	007a0693          	addi	a3,s4,7
1c00c700:	c406b6b3          	p.bclr	a3,a3,2,0
1c00c704:	00868793          	addi	a5,a3,8
1c00c708:	ce3e                	sw	a5,28(sp)
1c00c70a:	429c                	lw	a5,0(a3)
1c00c70c:	42d4                	lw	a3,4(a3)
1c00c70e:	c236                	sw	a3,4(sp)
1c00c710:	8736                	mv	a4,a3
1c00c712:	9fcff06f          	j	1c00b90e <pos_libc_prf+0x1fe>
1c00c716:	24c7efe3          	bltu	a5,a2,1c00d174 <pos_libc_prf+0x1a64>
1c00c71a:	6791                	lui	a5,0x4
1c00c71c:	14e78793          	addi	a5,a5,334 # 414e <_l1_preload_size+0x2a>
1c00c720:	00fe1023          	sh	a5,0(t3)
1c00c724:	04e00793          	li	a5,78
1c00c728:	00fe0123          	sb	a5,2(t3)
1c00c72c:	bd49                	j	1c00c5be <pos_libc_prf+0xeae>
1c00c72e:	02e00793          	li	a5,46
1c00c732:	00fe00a3          	sb	a5,1(t3)
1c00c736:	002e0793          	addi	a5,t3,2
1c00c73a:	f4904c63          	bgtz	s1,1c00be92 <pos_libc_prf+0x782>
1c00c73e:	8ca6                	mv	s9,s1
1c00c740:	853e                	mv	a0,a5
1c00c742:	be29                	j	1c00c25c <pos_libc_prf+0xb4c>
1c00c744:	4481                	li	s1,0
1c00c746:	c202                	sw	zero,4(sp)
1c00c748:	4901                	li	s2,0
1c00c74a:	a64ff06f          	j	1c00b9ae <pos_libc_prf+0x29e>
1c00c74e:	04600e93          	li	t4,70
1c00c752:	06600d93          	li	s11,102
1c00c756:	b95d                	j	1c00c40c <pos_libc_prf+0xcfc>
1c00c758:	105c                	addi	a5,sp,36
1c00c75a:	4565                	li	a0,25
1c00c75c:	0017c70b          	p.lbu	a4,1(a5!)
1c00c760:	f9f70693          	addi	a3,a4,-97
1c00c764:	0ff6f693          	andi	a3,a3,255
1c00c768:	fe070613          	addi	a2,a4,-32
1c00c76c:	00d56e63          	bltu	a0,a3,1c00c788 <pos_libc_prf+0x1078>
1c00c770:	fec78fa3          	sb	a2,-1(a5)
1c00c774:	0017c70b          	p.lbu	a4,1(a5!)
1c00c778:	f9f70693          	addi	a3,a4,-97
1c00c77c:	0ff6f693          	andi	a3,a3,255
1c00c780:	fe070613          	addi	a2,a4,-32
1c00c784:	fed576e3          	bleu	a3,a0,1c00c770 <pos_libc_prf+0x1060>
1c00c788:	fb71                	bnez	a4,1c00c75c <pos_libc_prf+0x104c>
1c00c78a:	d48ff06f          	j	1c00bcd2 <pos_libc_prf+0x5c2>
1c00c78e:	4c92                	lw	s9,4(sp)
1c00c790:	02410a13          	addi	s4,sp,36
1c00c794:	992ff06f          	j	1c00b926 <pos_libc_prf+0x216>
1c00c798:	4922                	lw	s2,8(sp)
1c00c79a:	8dd2                	mv	s11,s4
1c00c79c:	a029                	j	1c00c7a6 <pos_libc_prf+0x1096>
1c00c79e:	9982                	jalr	s3
1c00c7a0:	1dfd                	addi	s11,s11,-1
1c00c7a2:	8ff52263          	p.beqimm	a0,-1,1c00b886 <pos_libc_prf+0x176>
1c00c7a6:	85de                	mv	a1,s7
1c00c7a8:	03000513          	li	a0,48
1c00c7ac:	ffb049e3          	bgtz	s11,1c00c79e <pos_libc_prf+0x108e>
1c00c7b0:	41490933          	sub	s2,s2,s4
1c00c7b4:	a5cff06f          	j	1c00ba10 <pos_libc_prf+0x300>
1c00c7b8:	4712                	lw	a4,4(sp)
1c00c7ba:	12070fe3          	beqz	a4,1c00d0f8 <pos_libc_prf+0x19e8>
1c00c7be:	03000793          	li	a5,48
1c00c7c2:	02f10223          	sb	a5,36(sp)
1c00c7c6:	019467b3          	or	a5,s0,s9
1c00c7ca:	14078ae3          	beqz	a5,1c00d11e <pos_libc_prf+0x1a0e>
1c00c7ce:	02510593          	addi	a1,sp,37
1c00c7d2:	4905                	li	s2,1
1c00c7d4:	86ae                	mv	a3,a1
1c00c7d6:	87b6                	mv	a5,a3
1c00c7d8:	a011                	j	1c00c7dc <pos_libc_prf+0x10cc>
1c00c7da:	87b2                	mv	a5,a2
1c00c7dc:	01dc9613          	slli	a2,s9,0x1d
1c00c7e0:	f8343733          	p.bclr	a4,s0,28,3
1c00c7e4:	800d                	srli	s0,s0,0x3
1c00c7e6:	8c51                	or	s0,s0,a2
1c00c7e8:	03070713          	addi	a4,a4,48
1c00c7ec:	003cdc93          	srli	s9,s9,0x3
1c00c7f0:	00e78023          	sb	a4,0(a5)
1c00c7f4:	01946733          	or	a4,s0,s9
1c00c7f8:	00178613          	addi	a2,a5,1
1c00c7fc:	ff79                	bnez	a4,1c00c7da <pos_libc_prf+0x10ca>
1c00c7fe:	00060023          	sb	zero,0(a2)
1c00c802:	8e0d                	sub	a2,a2,a1
1c00c804:	00f6fc63          	bleu	a5,a3,1c00c81c <pos_libc_prf+0x110c>
1c00c808:	0006c583          	lbu	a1,0(a3)
1c00c80c:	0007c703          	lbu	a4,0(a5)
1c00c810:	feb78fab          	p.sb	a1,-1(a5!)
1c00c814:	00e680ab          	p.sb	a4,1(a3!)
1c00c818:	fef6e8e3          	bltu	a3,a5,1c00c808 <pos_libc_prf+0x10f8>
1c00c81c:	9932                	add	s2,s2,a2
1c00c81e:	c202                	sw	zero,4(sp)
1c00c820:	974ff06f          	j	1c00b994 <pos_libc_prf+0x284>
1c00c824:	106057e3          	blez	t1,1c00d132 <pos_libc_prf+0x1a22>
1c00c828:	00279e93          	slli	t4,a5,0x2
1c00c82c:	01e7df93          	srli	t6,a5,0x1e
1c00c830:	00269f13          	slli	t5,a3,0x2
1c00c834:	00fe85b3          	add	a1,t4,a5
1c00c838:	01efef33          	or	t5,t6,t5
1c00c83c:	9f36                	add	t5,t5,a3
1c00c83e:	01d5b6b3          	sltu	a3,a1,t4
1c00c842:	96fa                	add	a3,a3,t5
1c00c844:	01f5d793          	srli	a5,a1,0x1f
1c00c848:	0686                	slli	a3,a3,0x1
1c00c84a:	8edd                	or	a3,a3,a5
1c00c84c:	01c6d793          	srli	a5,a3,0x1c
1c00c850:	03078793          	addi	a5,a5,48
1c00c854:	10000eb7          	lui	t4,0x10000
1c00c858:	1efd                	addi	t4,t4,-1
1c00c85a:	00fe0023          	sb	a5,0(t3)
1c00c85e:	01d6f6b3          	and	a3,a3,t4
1c00c862:	00159793          	slli	a5,a1,0x1
1c00c866:	16132ee3          	p.beqimm	t1,1,1c00d1e2 <pos_libc_prf+0x1ad2>
1c00c86a:	01e7df93          	srli	t6,a5,0x1e
1c00c86e:	00269f13          	slli	t5,a3,0x2
1c00c872:	058e                	slli	a1,a1,0x3
1c00c874:	00f58533          	add	a0,a1,a5
1c00c878:	01efef33          	or	t5,t6,t5
1c00c87c:	9f36                	add	t5,t5,a3
1c00c87e:	00b536b3          	sltu	a3,a0,a1
1c00c882:	96fa                	add	a3,a3,t5
1c00c884:	01f55793          	srli	a5,a0,0x1f
1c00c888:	0686                	slli	a3,a3,0x1
1c00c88a:	8edd                	or	a3,a3,a5
1c00c88c:	01c6d793          	srli	a5,a3,0x1c
1c00c890:	03078793          	addi	a5,a5,48
1c00c894:	00fe00a3          	sb	a5,1(t3)
1c00c898:	01d6f6b3          	and	a3,a3,t4
1c00c89c:	00151793          	slli	a5,a0,0x1
1c00c8a0:	162323e3          	p.beqimm	t1,2,1c00d206 <pos_libc_prf+0x1af6>
1c00c8a4:	01e7df93          	srli	t6,a5,0x1e
1c00c8a8:	00269f13          	slli	t5,a3,0x2
1c00c8ac:	050e                	slli	a0,a0,0x3
1c00c8ae:	00f505b3          	add	a1,a0,a5
1c00c8b2:	01efef33          	or	t5,t6,t5
1c00c8b6:	9f36                	add	t5,t5,a3
1c00c8b8:	00a5b6b3          	sltu	a3,a1,a0
1c00c8bc:	96fa                	add	a3,a3,t5
1c00c8be:	01f5d793          	srli	a5,a1,0x1f
1c00c8c2:	0686                	slli	a3,a3,0x1
1c00c8c4:	8edd                	or	a3,a3,a5
1c00c8c6:	01c6d793          	srli	a5,a3,0x1c
1c00c8ca:	03078793          	addi	a5,a5,48
1c00c8ce:	00fe0123          	sb	a5,2(t3)
1c00c8d2:	ffd30a13          	addi	s4,t1,-3
1c00c8d6:	00159793          	slli	a5,a1,0x1
1c00c8da:	01d6f6b3          	and	a3,a3,t4
1c00c8de:	134050e3          	blez	s4,1c00d1fe <pos_libc_prf+0x1aee>
1c00c8e2:	01e7df93          	srli	t6,a5,0x1e
1c00c8e6:	00269f13          	slli	t5,a3,0x2
1c00c8ea:	058e                	slli	a1,a1,0x3
1c00c8ec:	00f58533          	add	a0,a1,a5
1c00c8f0:	01efef33          	or	t5,t6,t5
1c00c8f4:	9f36                	add	t5,t5,a3
1c00c8f6:	00b536b3          	sltu	a3,a0,a1
1c00c8fa:	96fa                	add	a3,a3,t5
1c00c8fc:	01f55793          	srli	a5,a0,0x1f
1c00c900:	0686                	slli	a3,a3,0x1
1c00c902:	8edd                	or	a3,a3,a5
1c00c904:	01c6d793          	srli	a5,a3,0x1c
1c00c908:	03078793          	addi	a5,a5,48
1c00c90c:	00fe01a3          	sb	a5,3(t3)
1c00c910:	ffc30a13          	addi	s4,t1,-4
1c00c914:	00151793          	slli	a5,a0,0x1
1c00c918:	01d6f6b3          	and	a3,a3,t4
1c00c91c:	134056e3          	blez	s4,1c00d248 <pos_libc_prf+0x1b38>
1c00c920:	01e7df93          	srli	t6,a5,0x1e
1c00c924:	00269f13          	slli	t5,a3,0x2
1c00c928:	050e                	slli	a0,a0,0x3
1c00c92a:	00f505b3          	add	a1,a0,a5
1c00c92e:	01efef33          	or	t5,t6,t5
1c00c932:	9f36                	add	t5,t5,a3
1c00c934:	00a5b6b3          	sltu	a3,a1,a0
1c00c938:	96fa                	add	a3,a3,t5
1c00c93a:	01f5d793          	srli	a5,a1,0x1f
1c00c93e:	0686                	slli	a3,a3,0x1
1c00c940:	8edd                	or	a3,a3,a5
1c00c942:	01c6d793          	srli	a5,a3,0x1c
1c00c946:	03078793          	addi	a5,a5,48
1c00c94a:	00fe0223          	sb	a5,4(t3)
1c00c94e:	ffb30a13          	addi	s4,t1,-5
1c00c952:	00159793          	slli	a5,a1,0x1
1c00c956:	01d6f6b3          	and	a3,a3,t4
1c00c95a:	0f4053e3          	blez	s4,1c00d240 <pos_libc_prf+0x1b30>
1c00c95e:	01e7df93          	srli	t6,a5,0x1e
1c00c962:	00269f13          	slli	t5,a3,0x2
1c00c966:	058e                	slli	a1,a1,0x3
1c00c968:	00f58533          	add	a0,a1,a5
1c00c96c:	01efef33          	or	t5,t6,t5
1c00c970:	9f36                	add	t5,t5,a3
1c00c972:	00b536b3          	sltu	a3,a0,a1
1c00c976:	96fa                	add	a3,a3,t5
1c00c978:	01f55793          	srli	a5,a0,0x1f
1c00c97c:	0686                	slli	a3,a3,0x1
1c00c97e:	8edd                	or	a3,a3,a5
1c00c980:	01c6d793          	srli	a5,a3,0x1c
1c00c984:	03078793          	addi	a5,a5,48
1c00c988:	00fe02a3          	sb	a5,5(t3)
1c00c98c:	ffa30a13          	addi	s4,t1,-6
1c00c990:	00151793          	slli	a5,a0,0x1
1c00c994:	01d6f6b3          	and	a3,a3,t4
1c00c998:	0b4050e3          	blez	s4,1c00d238 <pos_libc_prf+0x1b28>
1c00c99c:	01e7df93          	srli	t6,a5,0x1e
1c00c9a0:	00269f13          	slli	t5,a3,0x2
1c00c9a4:	050e                	slli	a0,a0,0x3
1c00c9a6:	00f505b3          	add	a1,a0,a5
1c00c9aa:	01efef33          	or	t5,t6,t5
1c00c9ae:	9f36                	add	t5,t5,a3
1c00c9b0:	00a5b6b3          	sltu	a3,a1,a0
1c00c9b4:	96fa                	add	a3,a3,t5
1c00c9b6:	01f5d793          	srli	a5,a1,0x1f
1c00c9ba:	0686                	slli	a3,a3,0x1
1c00c9bc:	8edd                	or	a3,a3,a5
1c00c9be:	01c6d793          	srli	a5,a3,0x1c
1c00c9c2:	03078793          	addi	a5,a5,48
1c00c9c6:	00fe0323          	sb	a5,6(t3)
1c00c9ca:	ff930a13          	addi	s4,t1,-7
1c00c9ce:	00159793          	slli	a5,a1,0x1
1c00c9d2:	01d6f6b3          	and	a3,a3,t4
1c00c9d6:	05405de3          	blez	s4,1c00d230 <pos_libc_prf+0x1b20>
1c00c9da:	058e                	slli	a1,a1,0x3
1c00c9dc:	01e7df13          	srli	t5,a5,0x1e
1c00c9e0:	00269513          	slli	a0,a3,0x2
1c00c9e4:	97ae                	add	a5,a5,a1
1c00c9e6:	00af6533          	or	a0,t5,a0
1c00c9ea:	9536                	add	a0,a0,a3
1c00c9ec:	00b7b6b3          	sltu	a3,a5,a1
1c00c9f0:	96aa                	add	a3,a3,a0
1c00c9f2:	01f7d593          	srli	a1,a5,0x1f
1c00c9f6:	0686                	slli	a3,a3,0x1
1c00c9f8:	8ecd                	or	a3,a3,a1
1c00c9fa:	01c6d593          	srli	a1,a3,0x1c
1c00c9fe:	03058593          	addi	a1,a1,48
1c00ca02:	0786                	slli	a5,a5,0x1
1c00ca04:	00be03a3          	sb	a1,7(t3)
1c00ca08:	ff830a13          	addi	s4,t1,-8
1c00ca0c:	85be                	mv	a1,a5
1c00ca0e:	01d6f6b3          	and	a3,a3,t4
1c00ca12:	01405be3          	blez	s4,1c00d228 <pos_libc_prf+0x1b18>
1c00ca16:	078a                	slli	a5,a5,0x2
1c00ca18:	01e5de93          	srli	t4,a1,0x1e
1c00ca1c:	00269513          	slli	a0,a3,0x2
1c00ca20:	95be                	add	a1,a1,a5
1c00ca22:	00aee533          	or	a0,t4,a0
1c00ca26:	9536                	add	a0,a0,a3
1c00ca28:	00f5b6b3          	sltu	a3,a1,a5
1c00ca2c:	96aa                	add	a3,a3,a0
1c00ca2e:	01f5d793          	srli	a5,a1,0x1f
1c00ca32:	0686                	slli	a3,a3,0x1
1c00ca34:	8edd                	or	a3,a3,a5
1c00ca36:	01c6d793          	srli	a5,a3,0x1c
1c00ca3a:	03078793          	addi	a5,a5,48
1c00ca3e:	10000eb7          	lui	t4,0x10000
1c00ca42:	1efd                	addi	t4,t4,-1
1c00ca44:	00fe0423          	sb	a5,8(t3)
1c00ca48:	ff730a13          	addi	s4,t1,-9
1c00ca4c:	00159793          	slli	a5,a1,0x1
1c00ca50:	01d6f6b3          	and	a3,a3,t4
1c00ca54:	7d405663          	blez	s4,1c00d220 <pos_libc_prf+0x1b10>
1c00ca58:	01e7df93          	srli	t6,a5,0x1e
1c00ca5c:	00269f13          	slli	t5,a3,0x2
1c00ca60:	058e                	slli	a1,a1,0x3
1c00ca62:	00f58533          	add	a0,a1,a5
1c00ca66:	01efef33          	or	t5,t6,t5
1c00ca6a:	9f36                	add	t5,t5,a3
1c00ca6c:	00b536b3          	sltu	a3,a0,a1
1c00ca70:	96fa                	add	a3,a3,t5
1c00ca72:	01f55793          	srli	a5,a0,0x1f
1c00ca76:	0686                	slli	a3,a3,0x1
1c00ca78:	8edd                	or	a3,a3,a5
1c00ca7a:	01c6d793          	srli	a5,a3,0x1c
1c00ca7e:	03078793          	addi	a5,a5,48
1c00ca82:	00fe04a3          	sb	a5,9(t3)
1c00ca86:	ff630a13          	addi	s4,t1,-10
1c00ca8a:	00151793          	slli	a5,a0,0x1
1c00ca8e:	01d6f6b3          	and	a3,a3,t4
1c00ca92:	79405363          	blez	s4,1c00d218 <pos_libc_prf+0x1b08>
1c00ca96:	01e7df93          	srli	t6,a5,0x1e
1c00ca9a:	00269f13          	slli	t5,a3,0x2
1c00ca9e:	050e                	slli	a0,a0,0x3
1c00caa0:	00f505b3          	add	a1,a0,a5
1c00caa4:	01efef33          	or	t5,t6,t5
1c00caa8:	9f36                	add	t5,t5,a3
1c00caaa:	00a5b6b3          	sltu	a3,a1,a0
1c00caae:	96fa                	add	a3,a3,t5
1c00cab0:	01f5d793          	srli	a5,a1,0x1f
1c00cab4:	0686                	slli	a3,a3,0x1
1c00cab6:	8edd                	or	a3,a3,a5
1c00cab8:	01c6d793          	srli	a5,a3,0x1c
1c00cabc:	03078793          	addi	a5,a5,48
1c00cac0:	00fe0523          	sb	a5,10(t3)
1c00cac4:	ff530a13          	addi	s4,t1,-11
1c00cac8:	00159793          	slli	a5,a1,0x1
1c00cacc:	01d6f6b3          	and	a3,a3,t4
1c00cad0:	75405063          	blez	s4,1c00d210 <pos_libc_prf+0x1b00>
1c00cad4:	01e7df93          	srli	t6,a5,0x1e
1c00cad8:	00269f13          	slli	t5,a3,0x2
1c00cadc:	058e                	slli	a1,a1,0x3
1c00cade:	00f58533          	add	a0,a1,a5
1c00cae2:	01efef33          	or	t5,t6,t5
1c00cae6:	9f36                	add	t5,t5,a3
1c00cae8:	00b536b3          	sltu	a3,a0,a1
1c00caec:	96fa                	add	a3,a3,t5
1c00caee:	01f55793          	srli	a5,a0,0x1f
1c00caf2:	0686                	slli	a3,a3,0x1
1c00caf4:	8edd                	or	a3,a3,a5
1c00caf6:	01c6d793          	srli	a5,a3,0x1c
1c00cafa:	03078793          	addi	a5,a5,48
1c00cafe:	00fe05a3          	sb	a5,11(t3)
1c00cb02:	ff430a13          	addi	s4,t1,-12
1c00cb06:	00151793          	slli	a5,a0,0x1
1c00cb0a:	01d6f6b3          	and	a3,a3,t4
1c00cb0e:	6f405163          	blez	s4,1c00d1f0 <pos_libc_prf+0x1ae0>
1c00cb12:	050e                	slli	a0,a0,0x3
1c00cb14:	01e7df13          	srli	t5,a5,0x1e
1c00cb18:	00269893          	slli	a7,a3,0x2
1c00cb1c:	00f505b3          	add	a1,a0,a5
1c00cb20:	011f68b3          	or	a7,t5,a7
1c00cb24:	98b6                	add	a7,a7,a3
1c00cb26:	00a5b6b3          	sltu	a3,a1,a0
1c00cb2a:	96c6                	add	a3,a3,a7
1c00cb2c:	01f5d793          	srli	a5,a1,0x1f
1c00cb30:	0686                	slli	a3,a3,0x1
1c00cb32:	8edd                	or	a3,a3,a5
1c00cb34:	01c6d793          	srli	a5,a3,0x1c
1c00cb38:	03078793          	addi	a5,a5,48
1c00cb3c:	00fe0623          	sb	a5,12(t3)
1c00cb40:	ff330a13          	addi	s4,t1,-13
1c00cb44:	00159793          	slli	a5,a1,0x1
1c00cb48:	01d6f6b3          	and	a3,a3,t4
1c00cb4c:	00de0513          	addi	a0,t3,13
1c00cb50:	488d                	li	a7,3
1c00cb52:	0d405163          	blez	s4,1c00cc14 <pos_libc_prf+0x1504>
1c00cb56:	01e7df13          	srli	t5,a5,0x1e
1c00cb5a:	00269893          	slli	a7,a3,0x2
1c00cb5e:	058e                	slli	a1,a1,0x3
1c00cb60:	00f58533          	add	a0,a1,a5
1c00cb64:	011f68b3          	or	a7,t5,a7
1c00cb68:	98b6                	add	a7,a7,a3
1c00cb6a:	00b536b3          	sltu	a3,a0,a1
1c00cb6e:	96c6                	add	a3,a3,a7
1c00cb70:	01f55793          	srli	a5,a0,0x1f
1c00cb74:	0686                	slli	a3,a3,0x1
1c00cb76:	8edd                	or	a3,a3,a5
1c00cb78:	01c6d793          	srli	a5,a3,0x1c
1c00cb7c:	03078793          	addi	a5,a5,48
1c00cb80:	00fe06a3          	sb	a5,13(t3)
1c00cb84:	ff230a13          	addi	s4,t1,-14
1c00cb88:	00151793          	slli	a5,a0,0x1
1c00cb8c:	01d6f6b3          	and	a3,a3,t4
1c00cb90:	65405c63          	blez	s4,1c00d1e8 <pos_libc_prf+0x1ad8>
1c00cb94:	050e                	slli	a0,a0,0x3
1c00cb96:	01e7df13          	srli	t5,a5,0x1e
1c00cb9a:	00269893          	slli	a7,a3,0x2
1c00cb9e:	00f505b3          	add	a1,a0,a5
1c00cba2:	011f68b3          	or	a7,t5,a7
1c00cba6:	98b6                	add	a7,a7,a3
1c00cba8:	00a5b6b3          	sltu	a3,a1,a0
1c00cbac:	96c6                	add	a3,a3,a7
1c00cbae:	01f5d793          	srli	a5,a1,0x1f
1c00cbb2:	0686                	slli	a3,a3,0x1
1c00cbb4:	8edd                	or	a3,a3,a5
1c00cbb6:	01c6d793          	srli	a5,a3,0x1c
1c00cbba:	03078793          	addi	a5,a5,48
1c00cbbe:	00fe0723          	sb	a5,14(t3)
1c00cbc2:	ff130a13          	addi	s4,t1,-15
1c00cbc6:	00159793          	slli	a5,a1,0x1
1c00cbca:	01d6f6b3          	and	a3,a3,t4
1c00cbce:	00fe0513          	addi	a0,t3,15
1c00cbd2:	4885                	li	a7,1
1c00cbd4:	05405063          	blez	s4,1c00cc14 <pos_libc_prf+0x1504>
1c00cbd8:	01e7d893          	srli	a7,a5,0x1e
1c00cbdc:	058e                	slli	a1,a1,0x3
1c00cbde:	00269513          	slli	a0,a3,0x2
1c00cbe2:	97ae                	add	a5,a5,a1
1c00cbe4:	00a8e533          	or	a0,a7,a0
1c00cbe8:	9536                	add	a0,a0,a3
1c00cbea:	00b7b6b3          	sltu	a3,a5,a1
1c00cbee:	96aa                	add	a3,a3,a0
1c00cbf0:	01f7d593          	srli	a1,a5,0x1f
1c00cbf4:	0686                	slli	a3,a3,0x1
1c00cbf6:	8ecd                	or	a3,a3,a1
1c00cbf8:	01c6d593          	srli	a1,a3,0x1c
1c00cbfc:	03058593          	addi	a1,a1,48
1c00cc00:	010e0513          	addi	a0,t3,16
1c00cc04:	0786                	slli	a5,a5,0x1
1c00cc06:	01d6f6b3          	and	a3,a3,t4
1c00cc0a:	00be07a3          	sb	a1,15(t3)
1c00cc0e:	ff030a13          	addi	s4,t1,-16
1c00cc12:	4881                	li	a7,0
1c00cc14:	4712                	lw	a4,4(sp)
1c00cc16:	4e070663          	beqz	a4,1c00d102 <pos_libc_prf+0x19f2>
1c00cc1a:	02e00313          	li	t1,46
1c00cc1e:	00650023          	sb	t1,0(a0)
1c00cc22:	8e26                	mv	t3,s1
1c00cc24:	cc02                	sw	zero,24(sp)
1c00cc26:	00150593          	addi	a1,a0,1
1c00cc2a:	4301                	li	t1,0
1c00cc2c:	63c05263          	blez	t3,1c00d250 <pos_libc_prf+0x1b40>
1c00cc30:	62088063          	beqz	a7,1c00d250 <pos_libc_prf+0x1b40>
1c00cc34:	00279513          	slli	a0,a5,0x2
1c00cc38:	01e7df13          	srli	t5,a5,0x1e
1c00cc3c:	00269e93          	slli	t4,a3,0x2
1c00cc40:	97aa                	add	a5,a5,a0
1c00cc42:	01df6eb3          	or	t4,t5,t4
1c00cc46:	96f6                	add	a3,a3,t4
1c00cc48:	00a7bf33          	sltu	t5,a5,a0
1c00cc4c:	9f36                	add	t5,t5,a3
1c00cc4e:	0f06                	slli	t5,t5,0x1
1c00cc50:	01f7d693          	srli	a3,a5,0x1f
1c00cc54:	01e6ef33          	or	t5,a3,t5
1c00cc58:	01cf5693          	srli	a3,t5,0x1c
1c00cc5c:	03068693          	addi	a3,a3,48
1c00cc60:	00d58023          	sb	a3,0(a1)
1c00cc64:	fffe0493          	addi	s1,t3,-1
1c00cc68:	00158513          	addi	a0,a1,1
1c00cc6c:	00179693          	slli	a3,a5,0x1
1c00cc70:	42048263          	beqz	s1,1c00d094 <pos_libc_prf+0x1984>
1c00cc74:	4218a063          	p.beqimm	a7,1,1c00d094 <pos_libc_prf+0x1984>
1c00cc78:	10000eb7          	lui	t4,0x10000
1c00cc7c:	1efd                	addi	t4,t4,-1
1c00cc7e:	01df7f33          	and	t5,t5,t4
1c00cc82:	078e                	slli	a5,a5,0x3
1c00cc84:	01e6df93          	srli	t6,a3,0x1e
1c00cc88:	002f1513          	slli	a0,t5,0x2
1c00cc8c:	96be                	add	a3,a3,a5
1c00cc8e:	00afe533          	or	a0,t6,a0
1c00cc92:	9f2a                	add	t5,t5,a0
1c00cc94:	00f6b7b3          	sltu	a5,a3,a5
1c00cc98:	97fa                	add	a5,a5,t5
1c00cc9a:	01f6d513          	srli	a0,a3,0x1f
1c00cc9e:	0786                	slli	a5,a5,0x1
1c00cca0:	8fc9                	or	a5,a5,a0
1c00cca2:	01c7d513          	srli	a0,a5,0x1c
1c00cca6:	03050513          	addi	a0,a0,48
1c00ccaa:	00a580a3          	sb	a0,1(a1)
1c00ccae:	ffee0493          	addi	s1,t3,-2
1c00ccb2:	00258513          	addi	a0,a1,2
1c00ccb6:	00169f13          	slli	t5,a3,0x1
1c00ccba:	01d7f7b3          	and	a5,a5,t4
1c00ccbe:	3c048b63          	beqz	s1,1c00d094 <pos_libc_prf+0x1984>
1c00ccc2:	3c28a963          	p.beqimm	a7,2,1c00d094 <pos_libc_prf+0x1984>
1c00ccc6:	01ef5f93          	srli	t6,t5,0x1e
1c00ccca:	068e                	slli	a3,a3,0x3
1c00cccc:	00279513          	slli	a0,a5,0x2
1c00ccd0:	9f36                	add	t5,t5,a3
1c00ccd2:	00afe533          	or	a0,t6,a0
1c00ccd6:	00df36b3          	sltu	a3,t5,a3
1c00ccda:	97aa                	add	a5,a5,a0
1c00ccdc:	97b6                	add	a5,a5,a3
1c00ccde:	0786                	slli	a5,a5,0x1
1c00cce0:	01ff5693          	srli	a3,t5,0x1f
1c00cce4:	8fd5                	or	a5,a5,a3
1c00cce6:	01c7d693          	srli	a3,a5,0x1c
1c00ccea:	03068693          	addi	a3,a3,48
1c00ccee:	00d58123          	sb	a3,2(a1)
1c00ccf2:	ffde0493          	addi	s1,t3,-3
1c00ccf6:	00358513          	addi	a0,a1,3
1c00ccfa:	001f1693          	slli	a3,t5,0x1
1c00ccfe:	01d7ffb3          	and	t6,a5,t4
1c00cd02:	38905963          	blez	s1,1c00d094 <pos_libc_prf+0x1984>
1c00cd06:	3838a763          	p.beqimm	a7,3,1c00d094 <pos_libc_prf+0x1984>
1c00cd0a:	003f1513          	slli	a0,t5,0x3
1c00cd0e:	01e6d793          	srli	a5,a3,0x1e
1c00cd12:	002f9f13          	slli	t5,t6,0x2
1c00cd16:	96aa                	add	a3,a3,a0
1c00cd18:	01e7ef33          	or	t5,a5,t5
1c00cd1c:	9f7e                	add	t5,t5,t6
1c00cd1e:	00a6b7b3          	sltu	a5,a3,a0
1c00cd22:	97fa                	add	a5,a5,t5
1c00cd24:	01f6d513          	srli	a0,a3,0x1f
1c00cd28:	0786                	slli	a5,a5,0x1
1c00cd2a:	8fc9                	or	a5,a5,a0
1c00cd2c:	01c7d513          	srli	a0,a5,0x1c
1c00cd30:	03050513          	addi	a0,a0,48
1c00cd34:	00a581a3          	sb	a0,3(a1)
1c00cd38:	ffce0493          	addi	s1,t3,-4
1c00cd3c:	00458513          	addi	a0,a1,4
1c00cd40:	00169f13          	slli	t5,a3,0x1
1c00cd44:	01d7feb3          	and	t4,a5,t4
1c00cd48:	34905663          	blez	s1,1c00d094 <pos_libc_prf+0x1984>
1c00cd4c:	3448a463          	p.beqimm	a7,4,1c00d094 <pos_libc_prf+0x1984>
1c00cd50:	068e                	slli	a3,a3,0x3
1c00cd52:	01ef5793          	srli	a5,t5,0x1e
1c00cd56:	002e9513          	slli	a0,t4,0x2
1c00cd5a:	9f36                	add	t5,t5,a3
1c00cd5c:	8d5d                	or	a0,a0,a5
1c00cd5e:	9eaa                	add	t4,t4,a0
1c00cd60:	00df37b3          	sltu	a5,t5,a3
1c00cd64:	97f6                	add	a5,a5,t4
1c00cd66:	01ff5693          	srli	a3,t5,0x1f
1c00cd6a:	0786                	slli	a5,a5,0x1
1c00cd6c:	8fd5                	or	a5,a5,a3
1c00cd6e:	01c7d693          	srli	a3,a5,0x1c
1c00cd72:	03068693          	addi	a3,a3,48
1c00cd76:	00d58223          	sb	a3,4(a1)
1c00cd7a:	ffbe0493          	addi	s1,t3,-5
1c00cd7e:	00558513          	addi	a0,a1,5
1c00cd82:	001f1693          	slli	a3,t5,0x1
1c00cd86:	30905763          	blez	s1,1c00d094 <pos_libc_prf+0x1984>
1c00cd8a:	3058a563          	p.beqimm	a7,5,1c00d094 <pos_libc_prf+0x1984>
1c00cd8e:	10000eb7          	lui	t4,0x10000
1c00cd92:	1efd                	addi	t4,t4,-1
1c00cd94:	01d7f7b3          	and	a5,a5,t4
1c00cd98:	01e6df13          	srli	t5,a3,0x1e
1c00cd9c:	00269513          	slli	a0,a3,0x2
1c00cda0:	00279f93          	slli	t6,a5,0x2
1c00cda4:	96aa                	add	a3,a3,a0
1c00cda6:	01ff6fb3          	or	t6,t5,t6
1c00cdaa:	00a6b533          	sltu	a0,a3,a0
1c00cdae:	97fe                	add	a5,a5,t6
1c00cdb0:	97aa                	add	a5,a5,a0
1c00cdb2:	00179f13          	slli	t5,a5,0x1
1c00cdb6:	01f6d513          	srli	a0,a3,0x1f
1c00cdba:	01e56f33          	or	t5,a0,t5
1c00cdbe:	01cf5793          	srli	a5,t5,0x1c
1c00cdc2:	03078793          	addi	a5,a5,48
1c00cdc6:	00f582a3          	sb	a5,5(a1)
1c00cdca:	ffae0493          	addi	s1,t3,-6
1c00cdce:	00658513          	addi	a0,a1,6
1c00cdd2:	00169793          	slli	a5,a3,0x1
1c00cdd6:	01df7f33          	and	t5,t5,t4
1c00cdda:	2a905d63          	blez	s1,1c00d094 <pos_libc_prf+0x1984>
1c00cdde:	2a68ab63          	p.beqimm	a7,6,1c00d094 <pos_libc_prf+0x1984>
1c00cde2:	068e                	slli	a3,a3,0x3
1c00cde4:	01e7df93          	srli	t6,a5,0x1e
1c00cde8:	002f1513          	slli	a0,t5,0x2
1c00cdec:	97b6                	add	a5,a5,a3
1c00cdee:	00afe533          	or	a0,t6,a0
1c00cdf2:	9f2a                	add	t5,t5,a0
1c00cdf4:	00d7b6b3          	sltu	a3,a5,a3
1c00cdf8:	96fa                	add	a3,a3,t5
1c00cdfa:	01f7d513          	srli	a0,a5,0x1f
1c00cdfe:	00169f13          	slli	t5,a3,0x1
1c00ce02:	01e56f33          	or	t5,a0,t5
1c00ce06:	01cf5693          	srli	a3,t5,0x1c
1c00ce0a:	03068693          	addi	a3,a3,48
1c00ce0e:	00d58323          	sb	a3,6(a1)
1c00ce12:	ff9e0493          	addi	s1,t3,-7
1c00ce16:	00758513          	addi	a0,a1,7
1c00ce1a:	00179693          	slli	a3,a5,0x1
1c00ce1e:	01df7f33          	and	t5,t5,t4
1c00ce22:	26905963          	blez	s1,1c00d094 <pos_libc_prf+0x1984>
1c00ce26:	2678a763          	p.beqimm	a7,7,1c00d094 <pos_libc_prf+0x1984>
1c00ce2a:	078e                	slli	a5,a5,0x3
1c00ce2c:	01e6df93          	srli	t6,a3,0x1e
1c00ce30:	002f1513          	slli	a0,t5,0x2
1c00ce34:	96be                	add	a3,a3,a5
1c00ce36:	00afe533          	or	a0,t6,a0
1c00ce3a:	9f2a                	add	t5,t5,a0
1c00ce3c:	00f6b7b3          	sltu	a5,a3,a5
1c00ce40:	97fa                	add	a5,a5,t5
1c00ce42:	01f6d513          	srli	a0,a3,0x1f
1c00ce46:	00179f13          	slli	t5,a5,0x1
1c00ce4a:	01e56f33          	or	t5,a0,t5
1c00ce4e:	01cf5793          	srli	a5,t5,0x1c
1c00ce52:	03078793          	addi	a5,a5,48
1c00ce56:	00f583a3          	sb	a5,7(a1)
1c00ce5a:	ff8e0493          	addi	s1,t3,-8
1c00ce5e:	00858513          	addi	a0,a1,8
1c00ce62:	00169793          	slli	a5,a3,0x1
1c00ce66:	01df7f33          	and	t5,t5,t4
1c00ce6a:	22905563          	blez	s1,1c00d094 <pos_libc_prf+0x1984>
1c00ce6e:	2288a363          	p.beqimm	a7,8,1c00d094 <pos_libc_prf+0x1984>
1c00ce72:	01e7df93          	srli	t6,a5,0x1e
1c00ce76:	068e                	slli	a3,a3,0x3
1c00ce78:	002f1513          	slli	a0,t5,0x2
1c00ce7c:	97b6                	add	a5,a5,a3
1c00ce7e:	00afe533          	or	a0,t6,a0
1c00ce82:	9f2a                	add	t5,t5,a0
1c00ce84:	00d7b6b3          	sltu	a3,a5,a3
1c00ce88:	96fa                	add	a3,a3,t5
1c00ce8a:	01f7d513          	srli	a0,a5,0x1f
1c00ce8e:	0686                	slli	a3,a3,0x1
1c00ce90:	8ec9                	or	a3,a3,a0
1c00ce92:	01c6d513          	srli	a0,a3,0x1c
1c00ce96:	03050513          	addi	a0,a0,48
1c00ce9a:	00a58423          	sb	a0,8(a1)
1c00ce9e:	ff7e0493          	addi	s1,t3,-9
1c00cea2:	00958513          	addi	a0,a1,9
1c00cea6:	00179f93          	slli	t6,a5,0x1
1c00ceaa:	01d6ff33          	and	t5,a3,t4
1c00ceae:	1e905363          	blez	s1,1c00d094 <pos_libc_prf+0x1984>
1c00ceb2:	1e98a163          	p.beqimm	a7,9,1c00d094 <pos_libc_prf+0x1984>
1c00ceb6:	078e                	slli	a5,a5,0x3
1c00ceb8:	01efd293          	srli	t0,t6,0x1e
1c00cebc:	002f1513          	slli	a0,t5,0x2
1c00cec0:	01f786b3          	add	a3,a5,t6
1c00cec4:	00a2e533          	or	a0,t0,a0
1c00cec8:	00f6b7b3          	sltu	a5,a3,a5
1c00cecc:	957a                	add	a0,a0,t5
1c00cece:	97aa                	add	a5,a5,a0
1c00ced0:	0786                	slli	a5,a5,0x1
1c00ced2:	01f6d513          	srli	a0,a3,0x1f
1c00ced6:	8fc9                	or	a5,a5,a0
1c00ced8:	01c7d513          	srli	a0,a5,0x1c
1c00cedc:	03050513          	addi	a0,a0,48
1c00cee0:	00a584a3          	sb	a0,9(a1)
1c00cee4:	ff6e0493          	addi	s1,t3,-10
1c00cee8:	00a58513          	addi	a0,a1,10
1c00ceec:	0686                	slli	a3,a3,0x1
1c00ceee:	01d7f7b3          	and	a5,a5,t4
1c00cef2:	1a905163          	blez	s1,1c00d094 <pos_libc_prf+0x1984>
1c00cef6:	18a8af63          	p.beqimm	a7,10,1c00d094 <pos_libc_prf+0x1984>
1c00cefa:	01e6df13          	srli	t5,a3,0x1e
1c00cefe:	00269513          	slli	a0,a3,0x2
1c00cf02:	00279e93          	slli	t4,a5,0x2
1c00cf06:	96aa                	add	a3,a3,a0
1c00cf08:	01df6eb3          	or	t4,t5,t4
1c00cf0c:	00a6b533          	sltu	a0,a3,a0
1c00cf10:	97f6                	add	a5,a5,t4
1c00cf12:	97aa                	add	a5,a5,a0
1c00cf14:	00179f13          	slli	t5,a5,0x1
1c00cf18:	01f6d513          	srli	a0,a3,0x1f
1c00cf1c:	01e56f33          	or	t5,a0,t5
1c00cf20:	01cf5793          	srli	a5,t5,0x1c
1c00cf24:	03078793          	addi	a5,a5,48
1c00cf28:	10000eb7          	lui	t4,0x10000
1c00cf2c:	1efd                	addi	t4,t4,-1
1c00cf2e:	00f58523          	sb	a5,10(a1)
1c00cf32:	ff5e0493          	addi	s1,t3,-11
1c00cf36:	00b58513          	addi	a0,a1,11
1c00cf3a:	00169793          	slli	a5,a3,0x1
1c00cf3e:	01df7f33          	and	t5,t5,t4
1c00cf42:	14905963          	blez	s1,1c00d094 <pos_libc_prf+0x1984>
1c00cf46:	14b8a763          	p.beqimm	a7,11,1c00d094 <pos_libc_prf+0x1984>
1c00cf4a:	068e                	slli	a3,a3,0x3
1c00cf4c:	01e7df93          	srli	t6,a5,0x1e
1c00cf50:	002f1513          	slli	a0,t5,0x2
1c00cf54:	97b6                	add	a5,a5,a3
1c00cf56:	00afe533          	or	a0,t6,a0
1c00cf5a:	9f2a                	add	t5,t5,a0
1c00cf5c:	00d7b6b3          	sltu	a3,a5,a3
1c00cf60:	96fa                	add	a3,a3,t5
1c00cf62:	01f7d513          	srli	a0,a5,0x1f
1c00cf66:	0686                	slli	a3,a3,0x1
1c00cf68:	8ec9                	or	a3,a3,a0
1c00cf6a:	01c6d513          	srli	a0,a3,0x1c
1c00cf6e:	03050513          	addi	a0,a0,48
1c00cf72:	00a585a3          	sb	a0,11(a1)
1c00cf76:	ff4e0493          	addi	s1,t3,-12
1c00cf7a:	00c58513          	addi	a0,a1,12
1c00cf7e:	00179f13          	slli	t5,a5,0x1
1c00cf82:	10905963          	blez	s1,1c00d094 <pos_libc_prf+0x1984>
1c00cf86:	10c8a763          	p.beqimm	a7,12,1c00d094 <pos_libc_prf+0x1984>
1c00cf8a:	01d6f6b3          	and	a3,a3,t4
1c00cf8e:	01ef5f93          	srli	t6,t5,0x1e
1c00cf92:	078e                	slli	a5,a5,0x3
1c00cf94:	00269513          	slli	a0,a3,0x2
1c00cf98:	9f3e                	add	t5,t5,a5
1c00cf9a:	00afe533          	or	a0,t6,a0
1c00cf9e:	96aa                	add	a3,a3,a0
1c00cfa0:	00ff37b3          	sltu	a5,t5,a5
1c00cfa4:	97b6                	add	a5,a5,a3
1c00cfa6:	01ff5513          	srli	a0,t5,0x1f
1c00cfaa:	00179693          	slli	a3,a5,0x1
1c00cfae:	8ec9                	or	a3,a3,a0
1c00cfb0:	01c6d793          	srli	a5,a3,0x1c
1c00cfb4:	03078793          	addi	a5,a5,48
1c00cfb8:	00f58623          	sb	a5,12(a1)
1c00cfbc:	ff3e0493          	addi	s1,t3,-13
1c00cfc0:	00d58513          	addi	a0,a1,13
1c00cfc4:	001f1793          	slli	a5,t5,0x1
1c00cfc8:	01d6ffb3          	and	t6,a3,t4
1c00cfcc:	0c905463          	blez	s1,1c00d094 <pos_libc_prf+0x1984>
1c00cfd0:	0cd8a263          	p.beqimm	a7,13,1c00d094 <pos_libc_prf+0x1984>
1c00cfd4:	003f1693          	slli	a3,t5,0x3
1c00cfd8:	002f9513          	slli	a0,t6,0x2
1c00cfdc:	01e7df13          	srli	t5,a5,0x1e
1c00cfe0:	00af6533          	or	a0,t5,a0
1c00cfe4:	97b6                	add	a5,a5,a3
1c00cfe6:	957e                	add	a0,a0,t6
1c00cfe8:	00d7b6b3          	sltu	a3,a5,a3
1c00cfec:	96aa                	add	a3,a3,a0
1c00cfee:	0686                	slli	a3,a3,0x1
1c00cff0:	01f7d513          	srli	a0,a5,0x1f
1c00cff4:	8ec9                	or	a3,a3,a0
1c00cff6:	01c6d513          	srli	a0,a3,0x1c
1c00cffa:	03050513          	addi	a0,a0,48
1c00cffe:	00a586a3          	sb	a0,13(a1)
1c00d002:	ff2e0493          	addi	s1,t3,-14
1c00d006:	00e58513          	addi	a0,a1,14
1c00d00a:	00179f93          	slli	t6,a5,0x1
1c00d00e:	01d6ff33          	and	t5,a3,t4
1c00d012:	08905163          	blez	s1,1c00d094 <pos_libc_prf+0x1984>
1c00d016:	06e8af63          	p.beqimm	a7,14,1c00d094 <pos_libc_prf+0x1984>
1c00d01a:	078e                	slli	a5,a5,0x3
1c00d01c:	002f1513          	slli	a0,t5,0x2
1c00d020:	01efd293          	srli	t0,t6,0x1e
1c00d024:	01f786b3          	add	a3,a5,t6
1c00d028:	00a2e533          	or	a0,t0,a0
1c00d02c:	957a                	add	a0,a0,t5
1c00d02e:	00f6b7b3          	sltu	a5,a3,a5
1c00d032:	97aa                	add	a5,a5,a0
1c00d034:	00179f13          	slli	t5,a5,0x1
1c00d038:	01f6d513          	srli	a0,a3,0x1f
1c00d03c:	01e56f33          	or	t5,a0,t5
1c00d040:	01cf5793          	srli	a5,t5,0x1c
1c00d044:	03078793          	addi	a5,a5,48
1c00d048:	00f58723          	sb	a5,14(a1)
1c00d04c:	ff1e0493          	addi	s1,t3,-15
1c00d050:	00f58513          	addi	a0,a1,15
1c00d054:	00169793          	slli	a5,a3,0x1
1c00d058:	01df7eb3          	and	t4,t5,t4
1c00d05c:	02905c63          	blez	s1,1c00d094 <pos_libc_prf+0x1984>
1c00d060:	46c1                	li	a3,16
1c00d062:	02d89963          	bne	a7,a3,1c00d094 <pos_libc_prf+0x1984>
1c00d066:	00279513          	slli	a0,a5,0x2
1c00d06a:	01e7d893          	srli	a7,a5,0x1e
1c00d06e:	002e9693          	slli	a3,t4,0x2
1c00d072:	97aa                	add	a5,a5,a0
1c00d074:	00d8e6b3          	or	a3,a7,a3
1c00d078:	00a7b7b3          	sltu	a5,a5,a0
1c00d07c:	9eb6                	add	t4,t4,a3
1c00d07e:	97f6                	add	a5,a5,t4
1c00d080:	0786                	slli	a5,a5,0x1
1c00d082:	83f1                	srli	a5,a5,0x1c
1c00d084:	03078793          	addi	a5,a5,48
1c00d088:	01058513          	addi	a0,a1,16
1c00d08c:	00f587a3          	sb	a5,15(a1)
1c00d090:	ff0e0493          	addi	s1,t3,-16
1c00d094:	47e2                	lw	a5,24(sp)
1c00d096:	014785b3          	add	a1,a5,s4
1c00d09a:	9c081663          	bnez	a6,1c00c266 <pos_libc_prf+0xb56>
1c00d09e:	95a6                	add	a1,a1,s1
1c00d0a0:	8ca6                	mv	s9,s1
1c00d0a2:	9f0ff06f          	j	1c00c292 <pos_libc_prf+0xb82>
1c00d0a6:	02d00793          	li	a5,45
1c00d0aa:	40600333          	neg	t1,t1
1c00d0ae:	00f500a3          	sb	a5,1(a0)
1c00d0b2:	db4ff06f          	j	1c00c666 <pos_libc_prf+0xf56>
1c00d0b6:	41fad793          	srai	a5,s5,0x1f
1c00d0ba:	0156a023          	sw	s5,0(a3)
1c00d0be:	c2dc                	sw	a5,4(a3)
1c00d0c0:	e8efe06f          	j	1c00b74e <pos_libc_prf+0x3e>
1c00d0c4:	4a62                	lw	s4,24(sp)
1c00d0c6:	a039                	j	1c00d0d4 <pos_libc_prf+0x19c4>
1c00d0c8:	9982                	jalr	s3
1c00d0ca:	1a7d                	addi	s4,s4,-1
1c00d0cc:	01f53463          	p.bneimm	a0,-1,1c00d0d4 <pos_libc_prf+0x19c4>
1c00d0d0:	fb6fe06f          	j	1c00b886 <pos_libc_prf+0x176>
1c00d0d4:	85de                	mv	a1,s7
1c00d0d6:	03000513          	li	a0,48
1c00d0da:	ff4047e3          	bgtz	s4,1c00d0c8 <pos_libc_prf+0x19b8>
1c00d0de:	4762                	lw	a4,24(sp)
1c00d0e0:	40e90933          	sub	s2,s2,a4
1c00d0e4:	933fe06f          	j	1c00ba16 <pos_libc_prf+0x306>
1c00d0e8:	4741                	li	a4,16
1c00d0ea:	04e4ceb3          	p.min	t4,s1,a4
1c00d0ee:	1efd                	addi	t4,t4,-1
1c00d0f0:	84be                	mv	s1,a5
1c00d0f2:	4801                	li	a6,0
1c00d0f4:	c63fe06f          	j	1c00bd56 <pos_libc_prf+0x646>
1c00d0f8:	104c                	addi	a1,sp,36
1c00d0fa:	4901                	li	s2,0
1c00d0fc:	86ae                	mv	a3,a1
1c00d0fe:	ed8ff06f          	j	1c00c7d6 <pos_libc_prf+0x10c6>
1c00d102:	0c904463          	bgtz	s1,1c00d1ca <pos_libc_prf+0x1aba>
1c00d106:	4301                	li	t1,0
1c00d108:	cc02                	sw	zero,24(sp)
1c00d10a:	b769                	j	1c00d094 <pos_libc_prf+0x1984>
1c00d10c:	4712                	lw	a4,4(sp)
1c00d10e:	4801                	li	a6,0
1c00d110:	e319                	bnez	a4,1c00d116 <pos_libc_prf+0x1a06>
1c00d112:	c39fe06f          	j	1c00bd4a <pos_libc_prf+0x63a>
1c00d116:	4e81                	li	t4,0
1c00d118:	4801                	li	a6,0
1c00d11a:	c3dfe06f          	j	1c00bd56 <pos_libc_prf+0x646>
1c00d11e:	020102a3          	sb	zero,37(sp)
1c00d122:	c202                	sw	zero,4(sp)
1c00d124:	4905                	li	s2,1
1c00d126:	86ffe06f          	j	1c00b994 <pos_libc_prf+0x284>
1c00d12a:	06600d93          	li	s11,102
1c00d12e:	d1cff06f          	j	1c00c64a <pos_libc_prf+0xf3a>
1c00d132:	4712                	lw	a4,4(sp)
1c00d134:	03000593          	li	a1,48
1c00d138:	00be0023          	sb	a1,0(t3)
1c00d13c:	e335                	bnez	a4,1c00d1a0 <pos_libc_prf+0x1a90>
1c00d13e:	06905b63          	blez	s1,1c00d1b4 <pos_libc_prf+0x1aa4>
1c00d142:	02e00593          	li	a1,46
1c00d146:	00be00a3          	sb	a1,1(t3)
1c00d14a:	002e0513          	addi	a0,t3,2
1c00d14e:	48c1                	li	a7,16
1c00d150:	08030363          	beqz	t1,1c00d1d6 <pos_libc_prf+0x1ac6>
1c00d154:	40600733          	neg	a4,t1
1c00d158:	04974733          	p.min	a4,a4,s1
1c00d15c:	cc3a                	sw	a4,24(sp)
1c00d15e:	40e48e33          	sub	t3,s1,a4
1c00d162:	85aa                	mv	a1,a0
1c00d164:	4a01                	li	s4,0
1c00d166:	48c1                	li	a7,16
1c00d168:	adc044e3          	bgtz	t3,1c00cc30 <pos_libc_prf+0x1520>
1c00d16c:	a0d5                	j	1c00d250 <pos_libc_prf+0x1b40>
1c00d16e:	4a72                	lw	s4,28(sp)
1c00d170:	ddefe06f          	j	1c00b74e <pos_libc_prf+0x3e>
1c00d174:	6799                	lui	a5,0x6
1c00d176:	16e78793          	addi	a5,a5,366 # 616e <_l1_preload_size+0x204a>
1c00d17a:	00fe1023          	sh	a5,0(t3)
1c00d17e:	06e00793          	li	a5,110
1c00d182:	00fe0123          	sb	a5,2(t3)
1c00d186:	c38ff06f          	j	1c00c5be <pos_libc_prf+0xeae>
1c00d18a:	679d                	lui	a5,0x7
1c00d18c:	e6978793          	addi	a5,a5,-407 # 6e69 <_l1_preload_size+0x2d45>
1c00d190:	00fe1023          	sh	a5,0(t3)
1c00d194:	06600793          	li	a5,102
1c00d198:	00fe0123          	sb	a5,2(t3)
1c00d19c:	c22ff06f          	j	1c00c5be <pos_libc_prf+0xeae>
1c00d1a0:	02e00593          	li	a1,46
1c00d1a4:	00be00a3          	sb	a1,1(t3)
1c00d1a8:	002e0513          	addi	a0,t3,2
1c00d1ac:	00030763          	beqz	t1,1c00d1ba <pos_libc_prf+0x1aaa>
1c00d1b0:	fa9042e3          	bgtz	s1,1c00d154 <pos_libc_prf+0x1a44>
1c00d1b4:	4a01                	li	s4,0
1c00d1b6:	cc02                	sw	zero,24(sp)
1c00d1b8:	bdf1                	j	1c00d094 <pos_libc_prf+0x1984>
1c00d1ba:	fe905de3          	blez	s1,1c00d1b4 <pos_libc_prf+0x1aa4>
1c00d1be:	85aa                	mv	a1,a0
1c00d1c0:	4a01                	li	s4,0
1c00d1c2:	cc02                	sw	zero,24(sp)
1c00d1c4:	8e26                	mv	t3,s1
1c00d1c6:	48c1                	li	a7,16
1c00d1c8:	b4b5                	j	1c00cc34 <pos_libc_prf+0x1524>
1c00d1ca:	02e00593          	li	a1,46
1c00d1ce:	00b50023          	sb	a1,0(a0)
1c00d1d2:	8352                	mv	t1,s4
1c00d1d4:	0505                	addi	a0,a0,1
1c00d1d6:	8a1a                	mv	s4,t1
1c00d1d8:	85aa                	mv	a1,a0
1c00d1da:	8e26                	mv	t3,s1
1c00d1dc:	cc02                	sw	zero,24(sp)
1c00d1de:	4301                	li	t1,0
1c00d1e0:	bc81                	j	1c00cc30 <pos_libc_prf+0x1520>
1c00d1e2:	4a01                	li	s4,0
1c00d1e4:	48bd                	li	a7,15
1c00d1e6:	b43d                	j	1c00cc14 <pos_libc_prf+0x1504>
1c00d1e8:	00ee0513          	addi	a0,t3,14
1c00d1ec:	4889                	li	a7,2
1c00d1ee:	b41d                	j	1c00cc14 <pos_libc_prf+0x1504>
1c00d1f0:	00ce0513          	addi	a0,t3,12
1c00d1f4:	b405                	j	1c00cc14 <pos_libc_prf+0x1504>
1c00d1f6:	c0200893          	li	a7,-1022
1c00d1fa:	a5cff06f          	j	1c00c456 <pos_libc_prf+0xd46>
1c00d1fe:	003e0513          	addi	a0,t3,3
1c00d202:	48b5                	li	a7,13
1c00d204:	bc01                	j	1c00cc14 <pos_libc_prf+0x1504>
1c00d206:	002e0513          	addi	a0,t3,2
1c00d20a:	4a01                	li	s4,0
1c00d20c:	48b9                	li	a7,14
1c00d20e:	b419                	j	1c00cc14 <pos_libc_prf+0x1504>
1c00d210:	00be0513          	addi	a0,t3,11
1c00d214:	4895                	li	a7,5
1c00d216:	bafd                	j	1c00cc14 <pos_libc_prf+0x1504>
1c00d218:	00ae0513          	addi	a0,t3,10
1c00d21c:	4899                	li	a7,6
1c00d21e:	badd                	j	1c00cc14 <pos_libc_prf+0x1504>
1c00d220:	009e0513          	addi	a0,t3,9
1c00d224:	489d                	li	a7,7
1c00d226:	b2fd                	j	1c00cc14 <pos_libc_prf+0x1504>
1c00d228:	008e0513          	addi	a0,t3,8
1c00d22c:	48a1                	li	a7,8
1c00d22e:	b2dd                	j	1c00cc14 <pos_libc_prf+0x1504>
1c00d230:	007e0513          	addi	a0,t3,7
1c00d234:	48a5                	li	a7,9
1c00d236:	baf9                	j	1c00cc14 <pos_libc_prf+0x1504>
1c00d238:	006e0513          	addi	a0,t3,6
1c00d23c:	48a9                	li	a7,10
1c00d23e:	bad9                	j	1c00cc14 <pos_libc_prf+0x1504>
1c00d240:	005e0513          	addi	a0,t3,5
1c00d244:	48ad                	li	a7,11
1c00d246:	b2f9                	j	1c00cc14 <pos_libc_prf+0x1504>
1c00d248:	004e0513          	addi	a0,t3,4
1c00d24c:	48b1                	li	a7,12
1c00d24e:	b2d9                	j	1c00cc14 <pos_libc_prf+0x1504>
1c00d250:	84f2                	mv	s1,t3
1c00d252:	852e                	mv	a0,a1
1c00d254:	b581                	j	1c00d094 <pos_libc_prf+0x1984>
1c00d256:	41990933          	sub	s2,s2,s9
1c00d25a:	8edfe06f          	j	1c00bb46 <pos_libc_prf+0x436>
1c00d25e:	00d78513          	addi	a0,a5,13
1c00d262:	ffbfe06f          	j	1c00c25c <pos_libc_prf+0xb4c>
1c00d266:	00c78513          	addi	a0,a5,12
1c00d26a:	ff3fe06f          	j	1c00c25c <pos_libc_prf+0xb4c>
1c00d26e:	00b78513          	addi	a0,a5,11
1c00d272:	febfe06f          	j	1c00c25c <pos_libc_prf+0xb4c>
1c00d276:	00978513          	addi	a0,a5,9
1c00d27a:	fe3fe06f          	j	1c00c25c <pos_libc_prf+0xb4c>
1c00d27e:	00878513          	addi	a0,a5,8
1c00d282:	fdbfe06f          	j	1c00c25c <pos_libc_prf+0xb4c>
1c00d286:	00778513          	addi	a0,a5,7
1c00d28a:	fd3fe06f          	j	1c00c25c <pos_libc_prf+0xb4c>
1c00d28e:	00678513          	addi	a0,a5,6
1c00d292:	fcbfe06f          	j	1c00c25c <pos_libc_prf+0xb4c>
1c00d296:	00578513          	addi	a0,a5,5
1c00d29a:	fc3fe06f          	j	1c00c25c <pos_libc_prf+0xb4c>
1c00d29e:	00478513          	addi	a0,a5,4
1c00d2a2:	fbbfe06f          	j	1c00c25c <pos_libc_prf+0xb4c>
1c00d2a6:	00378513          	addi	a0,a5,3
1c00d2aa:	fb3fe06f          	j	1c00c25c <pos_libc_prf+0xb4c>
1c00d2ae:	00278513          	addi	a0,a5,2
1c00d2b2:	fabfe06f          	j	1c00c25c <pos_libc_prf+0xb4c>
1c00d2b6:	00178513          	addi	a0,a5,1
1c00d2ba:	4c81                	li	s9,0
1c00d2bc:	fa1fe06f          	j	1c00c25c <pos_libc_prf+0xb4c>

1c00d2c0 <pos_init_start>:
1c00d2c0:	1141                	addi	sp,sp,-16
1c00d2c2:	c422                	sw	s0,8(sp)
1c00d2c4:	1c001437          	lui	s0,0x1c001
1c00d2c8:	c606                	sw	ra,12(sp)
1c00d2ca:	84c40413          	addi	s0,s0,-1972 # 1c00084c <ctor_list>
1c00d2ce:	2c79                	jal	1c00d56c <pos_irq_init>
1c00d2d0:	ae4fe0ef          	jal	ra,1c00b5b4 <pos_soc_init>
1c00d2d4:	24e9                	jal	1c00d59e <pos_soc_event_init>
1c00d2d6:	2a65                	jal	1c00d48e <pos_allocs_init>
1c00d2d8:	284d                	jal	1c00d38a <pos_sched_init>
1c00d2da:	405c                	lw	a5,4(s0)
1c00d2dc:	c791                	beqz	a5,1c00d2e8 <pos_init_start+0x28>
1c00d2de:	0421                	addi	s0,s0,8
1c00d2e0:	9782                	jalr	a5
1c00d2e2:	0044278b          	p.lw	a5,4(s0!)
1c00d2e6:	ffed                	bnez	a5,1c00d2e0 <pos_init_start+0x20>
1c00d2e8:	bf2fe0ef          	jal	ra,1c00b6da <pos_io_start>
1c00d2ec:	300467f3          	csrrsi	a5,mstatus,8
1c00d2f0:	40b2                	lw	ra,12(sp)
1c00d2f2:	4422                	lw	s0,8(sp)
1c00d2f4:	0141                	addi	sp,sp,16
1c00d2f6:	8082                	ret

1c00d2f8 <pos_init_stop>:
1c00d2f8:	1141                	addi	sp,sp,-16
1c00d2fa:	c422                	sw	s0,8(sp)
1c00d2fc:	1c001437          	lui	s0,0x1c001
1c00d300:	c606                	sw	ra,12(sp)
1c00d302:	86040413          	addi	s0,s0,-1952 # 1c000860 <dtor_list>
1c00d306:	bd8fe0ef          	jal	ra,1c00b6de <pos_io_stop>
1c00d30a:	405c                	lw	a5,4(s0)
1c00d30c:	c791                	beqz	a5,1c00d318 <pos_init_stop+0x20>
1c00d30e:	0421                	addi	s0,s0,8
1c00d310:	9782                	jalr	a5
1c00d312:	0044278b          	p.lw	a5,4(s0!)
1c00d316:	ffed                	bnez	a5,1c00d310 <pos_init_stop+0x18>
1c00d318:	40b2                	lw	ra,12(sp)
1c00d31a:	4422                	lw	s0,8(sp)
1c00d31c:	0141                	addi	sp,sp,16
1c00d31e:	8082                	ret

1c00d320 <pos_cbsys_add>:
1c00d320:	00259793          	slli	a5,a1,0x2
1c00d324:	1c0015b7          	lui	a1,0x1c001
1c00d328:	40058593          	addi	a1,a1,1024 # 1c001400 <stack>
1c00d32c:	95be                	add	a1,a1,a5
1c00d32e:	419c                	lw	a5,0(a1)
1c00d330:	c110                	sw	a2,0(a0)
1c00d332:	c154                	sw	a3,4(a0)
1c00d334:	c51c                	sw	a5,8(a0)
1c00d336:	c188                	sw	a0,0(a1)
1c00d338:	8082                	ret

1c00d33a <pi_open_from_conf>:
1c00d33a:	c14c                	sw	a1,4(a0)
1c00d33c:	8082                	ret

1c00d33e <pos_task_handle_blocking>:
1c00d33e:	4785                	li	a5,1
1c00d340:	00f50a23          	sb	a5,20(a0)
1c00d344:	8082                	ret

1c00d346 <pos_task_handle>:
1c00d346:	1141                	addi	sp,sp,-16
1c00d348:	c422                	sw	s0,8(sp)
1c00d34a:	02000413          	li	s0,32
1c00d34e:	401c                	lw	a5,0(s0)
1c00d350:	c606                	sw	ra,12(sp)
1c00d352:	c385                	beqz	a5,1c00d372 <pos_task_handle+0x2c>
1c00d354:	4394                	lw	a3,0(a5)
1c00d356:	43d8                	lw	a4,4(a5)
1c00d358:	4788                	lw	a0,8(a5)
1c00d35a:	c014                	sw	a3,0(s0)
1c00d35c:	300467f3          	csrrsi	a5,mstatus,8
1c00d360:	9702                	jalr	a4
1c00d362:	300477f3          	csrrci	a5,mstatus,8
1c00d366:	401c                	lw	a5,0(s0)
1c00d368:	f7f5                	bnez	a5,1c00d354 <pos_task_handle+0xe>
1c00d36a:	40b2                	lw	ra,12(sp)
1c00d36c:	4422                	lw	s0,8(sp)
1c00d36e:	0141                	addi	sp,sp,16
1c00d370:	8082                	ret
1c00d372:	10500073          	wfi
1c00d376:	300467f3          	csrrsi	a5,mstatus,8
1c00d37a:	300477f3          	csrrci	a5,mstatus,8
1c00d37e:	401c                	lw	a5,0(s0)
1c00d380:	fbf1                	bnez	a5,1c00d354 <pos_task_handle+0xe>
1c00d382:	40b2                	lw	ra,12(sp)
1c00d384:	4422                	lw	s0,8(sp)
1c00d386:	0141                	addi	sp,sp,16
1c00d388:	8082                	ret

1c00d38a <pos_sched_init>:
1c00d38a:	02002023          	sw	zero,32(zero) # 20 <pos_sched_first>
1c00d38e:	8082                	ret

1c00d390 <pos_alloc_init>:
1c00d390:	00758793          	addi	a5,a1,7
1c00d394:	c407b7b3          	p.bclr	a5,a5,2,0
1c00d398:	40b785b3          	sub	a1,a5,a1
1c00d39c:	c11c                	sw	a5,0(a0)
1c00d39e:	8e0d                	sub	a2,a2,a1
1c00d3a0:	00c05763          	blez	a2,1c00d3ae <pos_alloc_init+0x1e>
1c00d3a4:	c4063633          	p.bclr	a2,a2,2,0
1c00d3a8:	c390                	sw	a2,0(a5)
1c00d3aa:	0007a223          	sw	zero,4(a5)
1c00d3ae:	8082                	ret

1c00d3b0 <pos_alloc>:
1c00d3b0:	4110                	lw	a2,0(a0)
1c00d3b2:	059d                	addi	a1,a1,7
1c00d3b4:	c405b5b3          	p.bclr	a1,a1,2,0
1c00d3b8:	ca31                	beqz	a2,1c00d40c <pos_alloc+0x5c>
1c00d3ba:	4218                	lw	a4,0(a2)
1c00d3bc:	425c                	lw	a5,4(a2)
1c00d3be:	02b75963          	ble	a1,a4,1c00d3f0 <pos_alloc+0x40>
1c00d3c2:	cb81                	beqz	a5,1c00d3d2 <pos_alloc+0x22>
1c00d3c4:	4398                	lw	a4,0(a5)
1c00d3c6:	43d4                	lw	a3,4(a5)
1c00d3c8:	00b75763          	ble	a1,a4,1c00d3d6 <pos_alloc+0x26>
1c00d3cc:	863e                	mv	a2,a5
1c00d3ce:	87b6                	mv	a5,a3
1c00d3d0:	fbf5                	bnez	a5,1c00d3c4 <pos_alloc+0x14>
1c00d3d2:	853e                	mv	a0,a5
1c00d3d4:	8082                	ret
1c00d3d6:	00b70a63          	beq	a4,a1,1c00d3ea <pos_alloc+0x3a>
1c00d3da:	00b78533          	add	a0,a5,a1
1c00d3de:	8f0d                	sub	a4,a4,a1
1c00d3e0:	c118                	sw	a4,0(a0)
1c00d3e2:	c154                	sw	a3,4(a0)
1c00d3e4:	c248                	sw	a0,4(a2)
1c00d3e6:	853e                	mv	a0,a5
1c00d3e8:	8082                	ret
1c00d3ea:	c254                	sw	a3,4(a2)
1c00d3ec:	853e                	mv	a0,a5
1c00d3ee:	8082                	ret
1c00d3f0:	00e58b63          	beq	a1,a4,1c00d406 <pos_alloc+0x56>
1c00d3f4:	00b606b3          	add	a3,a2,a1
1c00d3f8:	8f0d                	sub	a4,a4,a1
1c00d3fa:	c2dc                	sw	a5,4(a3)
1c00d3fc:	c298                	sw	a4,0(a3)
1c00d3fe:	87b2                	mv	a5,a2
1c00d400:	c114                	sw	a3,0(a0)
1c00d402:	853e                	mv	a0,a5
1c00d404:	8082                	ret
1c00d406:	c11c                	sw	a5,0(a0)
1c00d408:	87b2                	mv	a5,a2
1c00d40a:	b7e1                	j	1c00d3d2 <pos_alloc+0x22>
1c00d40c:	4781                	li	a5,0
1c00d40e:	b7d1                	j	1c00d3d2 <pos_alloc+0x22>

1c00d410 <pos_free>:
1c00d410:	4118                	lw	a4,0(a0)
1c00d412:	061d                	addi	a2,a2,7
1c00d414:	c4063633          	p.bclr	a2,a2,2,0
1c00d418:	c729                	beqz	a4,1c00d462 <pos_free+0x52>
1c00d41a:	00b76663          	bltu	a4,a1,1c00d426 <pos_free+0x16>
1c00d41e:	a0a1                	j	1c00d466 <pos_free+0x56>
1c00d420:	00b7f563          	bleu	a1,a5,1c00d42a <pos_free+0x1a>
1c00d424:	873e                	mv	a4,a5
1c00d426:	435c                	lw	a5,4(a4)
1c00d428:	ffe5                	bnez	a5,1c00d420 <pos_free+0x10>
1c00d42a:	00c586b3          	add	a3,a1,a2
1c00d42e:	02d78463          	beq	a5,a3,1c00d456 <pos_free+0x46>
1c00d432:	c190                	sw	a2,0(a1)
1c00d434:	c1dc                	sw	a5,4(a1)
1c00d436:	cf11                	beqz	a4,1c00d452 <pos_free+0x42>
1c00d438:	431c                	lw	a5,0(a4)
1c00d43a:	00f706b3          	add	a3,a4,a5
1c00d43e:	00d58463          	beq	a1,a3,1c00d446 <pos_free+0x36>
1c00d442:	c34c                	sw	a1,4(a4)
1c00d444:	8082                	ret
1c00d446:	4194                	lw	a3,0(a1)
1c00d448:	41d0                	lw	a2,4(a1)
1c00d44a:	97b6                	add	a5,a5,a3
1c00d44c:	c31c                	sw	a5,0(a4)
1c00d44e:	c350                	sw	a2,4(a4)
1c00d450:	8082                	ret
1c00d452:	c10c                	sw	a1,0(a0)
1c00d454:	8082                	ret
1c00d456:	4394                	lw	a3,0(a5)
1c00d458:	43dc                	lw	a5,4(a5)
1c00d45a:	9636                	add	a2,a2,a3
1c00d45c:	c190                	sw	a2,0(a1)
1c00d45e:	c1dc                	sw	a5,4(a1)
1c00d460:	bfd9                	j	1c00d436 <pos_free+0x26>
1c00d462:	4781                	li	a5,0
1c00d464:	b7d9                	j	1c00d42a <pos_free+0x1a>
1c00d466:	87ba                	mv	a5,a4
1c00d468:	4701                	li	a4,0
1c00d46a:	b7c1                	j	1c00d42a <pos_free+0x1a>

1c00d46c <pos_alloc_init_l1>:
1c00d46c:	1c0057b7          	lui	a5,0x1c005
1c00d470:	4d07a703          	lw	a4,1232(a5) # 1c0054d0 <pos_alloc_l1>
1c00d474:	100047b7          	lui	a5,0x10004
1c00d478:	01651593          	slli	a1,a0,0x16
1c00d47c:	6631                	lui	a2,0xc
1c00d47e:	050a                	slli	a0,a0,0x2
1c00d480:	12878793          	addi	a5,a5,296 # 10004128 <__l1_end>
1c00d484:	ed860613          	addi	a2,a2,-296 # bed8 <__l1_heap_size>
1c00d488:	95be                	add	a1,a1,a5
1c00d48a:	953a                	add	a0,a0,a4
1c00d48c:	b711                	j	1c00d390 <pos_alloc_init>

1c00d48e <pos_allocs_init>:
1c00d48e:	1141                	addi	sp,sp,-16
1c00d490:	1c0055b7          	lui	a1,0x1c005
1c00d494:	c606                	sw	ra,12(sp)
1c00d496:	c422                	sw	s0,8(sp)
1c00d498:	4fc58793          	addi	a5,a1,1276 # 1c0054fc <__l2_priv0_end>
1c00d49c:	1c008637          	lui	a2,0x1c008
1c00d4a0:	04c7c363          	blt	a5,a2,1c00d4e6 <pos_allocs_init+0x58>
1c00d4a4:	4581                	li	a1,0
1c00d4a6:	4601                	li	a2,0
1c00d4a8:	1c005437          	lui	s0,0x1c005
1c00d4ac:	4d440513          	addi	a0,s0,1236 # 1c0054d4 <pos_alloc_l2>
1c00d4b0:	35c5                	jal	1c00d390 <pos_alloc_init>
1c00d4b2:	1c0145b7          	lui	a1,0x1c014
1c00d4b6:	2ac58793          	addi	a5,a1,684 # 1c0142ac <__l2_shared_end>
1c00d4ba:	1c080637          	lui	a2,0x1c080
1c00d4be:	1c005537          	lui	a0,0x1c005
1c00d4c2:	8e1d                	sub	a2,a2,a5
1c00d4c4:	2ac58593          	addi	a1,a1,684
1c00d4c8:	4d850513          	addi	a0,a0,1240 # 1c0054d8 <pos_alloc_l2+0x4>
1c00d4cc:	35d1                	jal	1c00d390 <pos_alloc_init>
1c00d4ce:	4d440513          	addi	a0,s0,1236
1c00d4d2:	4591                	li	a1,4
1c00d4d4:	3df1                	jal	1c00d3b0 <pos_alloc>
1c00d4d6:	40b2                	lw	ra,12(sp)
1c00d4d8:	4422                	lw	s0,8(sp)
1c00d4da:	1c0057b7          	lui	a5,0x1c005
1c00d4de:	4ca7a823          	sw	a0,1232(a5) # 1c0054d0 <pos_alloc_l1>
1c00d4e2:	0141                	addi	sp,sp,16
1c00d4e4:	8082                	ret
1c00d4e6:	8e1d                	sub	a2,a2,a5
1c00d4e8:	4fc58593          	addi	a1,a1,1276
1c00d4ec:	bf75                	j	1c00d4a8 <pos_allocs_init+0x1a>

1c00d4ee <pi_cl_l1_malloc>:
1c00d4ee:	4781                	li	a5,0
1c00d4f0:	c509                	beqz	a0,1c00d4fa <pi_cl_l1_malloc+0xc>
1c00d4f2:	451c                	lw	a5,8(a0)
1c00d4f4:	01c7c783          	lbu	a5,28(a5)
1c00d4f8:	078a                	slli	a5,a5,0x2
1c00d4fa:	1c005737          	lui	a4,0x1c005
1c00d4fe:	4d072503          	lw	a0,1232(a4) # 1c0054d0 <pos_alloc_l1>
1c00d502:	953e                	add	a0,a0,a5
1c00d504:	b575                	j	1c00d3b0 <pos_alloc>

1c00d506 <pi_cl_l1_free>:
1c00d506:	4781                	li	a5,0
1c00d508:	c509                	beqz	a0,1c00d512 <pi_cl_l1_free+0xc>
1c00d50a:	451c                	lw	a5,8(a0)
1c00d50c:	01c7c783          	lbu	a5,28(a5)
1c00d510:	078a                	slli	a5,a5,0x2
1c00d512:	1c005737          	lui	a4,0x1c005
1c00d516:	4d072503          	lw	a0,1232(a4) # 1c0054d0 <pos_alloc_l1>
1c00d51a:	953e                	add	a0,a0,a5
1c00d51c:	bdd5                	j	1c00d410 <pos_free>

1c00d51e <pos_irq_set_handler>:
1c00d51e:	f14027f3          	csrr	a5,mhartid
1c00d522:	477d                	li	a4,31
1c00d524:	ca5797b3          	p.extractu	a5,a5,5,5
1c00d528:	02e78d63          	beq	a5,a4,1c00d562 <pos_irq_set_handler+0x44>
1c00d52c:	002007b7          	lui	a5,0x200
1c00d530:	43b8                	lw	a4,64(a5)
1c00d532:	050a                	slli	a0,a0,0x2
1c00d534:	8d89                	sub	a1,a1,a0
1c00d536:	8d99                	sub	a1,a1,a4
1c00d538:	c14586b3          	p.extract	a3,a1,0,20
1c00d53c:	06f00793          	li	a5,111
1c00d540:	c1f6a7b3          	p.insert	a5,a3,0,31
1c00d544:	d21586b3          	p.extract	a3,a1,9,1
1c00d548:	d356a7b3          	p.insert	a5,a3,9,21
1c00d54c:	c0b586b3          	p.extract	a3,a1,0,11
1c00d550:	c146a7b3          	p.insert	a5,a3,0,20
1c00d554:	cec585b3          	p.extract	a1,a1,7,12
1c00d558:	cec5a7b3          	p.insert	a5,a1,7,12
1c00d55c:	00f56723          	p.sw	a5,a4(a0)
1c00d560:	8082                	ret
1c00d562:	30502773          	csrr	a4,mtvec
1c00d566:	c0073733          	p.bclr	a4,a4,0,0
1c00d56a:	b7e1                	j	1c00d532 <pos_irq_set_handler+0x14>

1c00d56c <pos_irq_init>:
1c00d56c:	f1402773          	csrr	a4,mhartid
1c00d570:	1a10a7b7          	lui	a5,0x1a10a
1c00d574:	56fd                	li	a3,-1
1c00d576:	80d7a423          	sw	a3,-2040(a5) # 1a109808 <__l1_end+0xa1056e0>
1c00d57a:	ca571733          	p.extractu	a4,a4,5,5
1c00d57e:	1c0087b7          	lui	a5,0x1c008
1c00d582:	46fd                	li	a3,31
1c00d584:	00078793          	mv	a5,a5
1c00d588:	00d70663          	beq	a4,a3,1c00d594 <pos_irq_init+0x28>
1c00d58c:	00200737          	lui	a4,0x200
1c00d590:	c33c                	sw	a5,64(a4)
1c00d592:	8082                	ret
1c00d594:	c007c7b3          	p.bset	a5,a5,0,0
1c00d598:	30579073          	csrw	mtvec,a5
1c00d59c:	8082                	ret

1c00d59e <pos_soc_event_init>:
1c00d59e:	1a1067b7          	lui	a5,0x1a106
1c00d5a2:	1141                	addi	sp,sp,-16
1c00d5a4:	c606                	sw	ra,12(sp)
1c00d5a6:	577d                	li	a4,-1
1c00d5a8:	00478693          	addi	a3,a5,4 # 1a106004 <__l1_end+0xa101edc>
1c00d5ac:	c298                	sw	a4,0(a3)
1c00d5ae:	00878693          	addi	a3,a5,8
1c00d5b2:	c298                	sw	a4,0(a3)
1c00d5b4:	00c78693          	addi	a3,a5,12
1c00d5b8:	c298                	sw	a4,0(a3)
1c00d5ba:	01078693          	addi	a3,a5,16
1c00d5be:	c298                	sw	a4,0(a3)
1c00d5c0:	01478693          	addi	a3,a5,20
1c00d5c4:	c298                	sw	a4,0(a3)
1c00d5c6:	01878693          	addi	a3,a5,24
1c00d5ca:	c298                	sw	a4,0(a3)
1c00d5cc:	01c78693          	addi	a3,a5,28
1c00d5d0:	c298                	sw	a4,0(a3)
1c00d5d2:	02078793          	addi	a5,a5,32
1c00d5d6:	1c00e5b7          	lui	a1,0x1c00e
1c00d5da:	c398                	sw	a4,0(a5)
1c00d5dc:	bf258593          	addi	a1,a1,-1038 # 1c00dbf2 <pos_soc_event_handler_asm>
1c00d5e0:	4569                	li	a0,26
1c00d5e2:	3f35                	jal	1c00d51e <pos_irq_set_handler>
1c00d5e4:	40b2                	lw	ra,12(sp)
1c00d5e6:	1a10a7b7          	lui	a5,0x1a10a
1c00d5ea:	04000737          	lui	a4,0x4000
1c00d5ee:	80e7a223          	sw	a4,-2044(a5) # 1a109804 <__l1_end+0xa1056dc>
1c00d5f2:	0141                	addi	sp,sp,16
1c00d5f4:	8082                	ret

1c00d5f6 <pos_time_poweroff>:
1c00d5f6:	1a10b7b7          	lui	a5,0x1a10b
1c00d5fa:	0791                	addi	a5,a5,4
1c00d5fc:	0087a783          	lw	a5,8(a5) # 1a10b008 <__l1_end+0xa106ee0>
1c00d600:	1c001737          	lui	a4,0x1c001
1c00d604:	40f72c23          	sw	a5,1048(a4) # 1c001418 <pos_time_timer_count>
1c00d608:	4501                	li	a0,0
1c00d60a:	8082                	ret

1c00d60c <pos_time_poweron>:
1c00d60c:	1c0017b7          	lui	a5,0x1c001
1c00d610:	4187a703          	lw	a4,1048(a5) # 1c001418 <pos_time_timer_count>
1c00d614:	1a10b7b7          	lui	a5,0x1a10b
1c00d618:	0791                	addi	a5,a5,4
1c00d61a:	00e7a423          	sw	a4,8(a5) # 1a10b008 <__l1_end+0xa106ee0>
1c00d61e:	4501                	li	a0,0
1c00d620:	8082                	ret

1c00d622 <pos_time_timer_handler>:
1c00d622:	1c0018b7          	lui	a7,0x1c001
1c00d626:	41888893          	addi	a7,a7,1048 # 1c001418 <pos_time_timer_count>
1c00d62a:	0048a783          	lw	a5,4(a7)
1c00d62e:	1a10b637          	lui	a2,0x1a10b
1c00d632:	0611                	addi	a2,a2,4
1c00d634:	00862603          	lw	a2,8(a2) # 1a10b008 <__l1_end+0xa106ee0>
1c00d638:	cba9                	beqz	a5,1c00d68a <pos_time_timer_handler+0x68>
1c00d63a:	5fd8                	lw	a4,60(a5)
1c00d63c:	800005b7          	lui	a1,0x80000
1c00d640:	ffe5c593          	xori	a1,a1,-2
1c00d644:	40e60733          	sub	a4,a2,a4
1c00d648:	0ae5e763          	bltu	a1,a4,1c00d6f6 <pos_time_timer_handler+0xd4>
1c00d64c:	02002803          	lw	a6,32(zero) # 20 <pos_sched_first>
1c00d650:	02402503          	lw	a0,36(zero) # 24 <pos_sched_last>
1c00d654:	4398                	lw	a4,0(a5)
1c00d656:	0007a023          	sw	zero,0(a5)
1c00d65a:	4301                	li	t1,0
1c00d65c:	02080063          	beqz	a6,1c00d67c <pos_time_timer_handler+0x5a>
1c00d660:	c11c                	sw	a5,0(a0)
1c00d662:	c305                	beqz	a4,1c00d682 <pos_time_timer_handler+0x60>
1c00d664:	5f54                	lw	a3,60(a4)
1c00d666:	853e                	mv	a0,a5
1c00d668:	40d606b3          	sub	a3,a2,a3
1c00d66c:	04d5e763          	bltu	a1,a3,1c00d6ba <pos_time_timer_handler+0x98>
1c00d670:	87ba                	mv	a5,a4
1c00d672:	4398                	lw	a4,0(a5)
1c00d674:	0007a023          	sw	zero,0(a5)
1c00d678:	fe0814e3          	bnez	a6,1c00d660 <pos_time_timer_handler+0x3e>
1c00d67c:	883e                	mv	a6,a5
1c00d67e:	4305                	li	t1,1
1c00d680:	f375                	bnez	a4,1c00d664 <pos_time_timer_handler+0x42>
1c00d682:	06031c63          	bnez	t1,1c00d6fa <pos_time_timer_handler+0xd8>
1c00d686:	02f02223          	sw	a5,36(zero) # 24 <pos_sched_last>
1c00d68a:	1a10b7b7          	lui	a5,0x1a10b
1c00d68e:	08100713          	li	a4,129
1c00d692:	0791                	addi	a5,a5,4
1c00d694:	0008a223          	sw	zero,4(a7)
1c00d698:	00e7a023          	sw	a4,0(a5) # 1a10b000 <__l1_end+0xa106ed8>
1c00d69c:	f14027f3          	csrr	a5,mhartid
1c00d6a0:	477d                	li	a4,31
1c00d6a2:	ca5797b3          	p.extractu	a5,a5,5,5
1c00d6a6:	04e78063          	beq	a5,a4,1c00d6e6 <pos_time_timer_handler+0xc4>
1c00d6aa:	6785                	lui	a5,0x1
1c00d6ac:	80078793          	addi	a5,a5,-2048 # 800 <pos_soc_event_callback+0x3b8>
1c00d6b0:	00204737          	lui	a4,0x204
1c00d6b4:	02f72423          	sw	a5,40(a4) # 204028 <__l1_heap_size+0x1f8150>
1c00d6b8:	8082                	ret
1c00d6ba:	04031363          	bnez	t1,1c00d700 <pos_time_timer_handler+0xde>
1c00d6be:	02f02223          	sw	a5,36(zero) # 24 <pos_sched_last>
1c00d6c2:	1a10b7b7          	lui	a5,0x1a10b
1c00d6c6:	0791                	addi	a5,a5,4
1c00d6c8:	00e8a223          	sw	a4,4(a7)
1c00d6cc:	0087a683          	lw	a3,8(a5) # 1a10b008 <__l1_end+0xa106ee0>
1c00d6d0:	5f58                	lw	a4,60(a4)
1c00d6d2:	40c70633          	sub	a2,a4,a2
1c00d6d6:	9636                	add	a2,a2,a3
1c00d6d8:	00c7a823          	sw	a2,16(a5)
1c00d6dc:	08500713          	li	a4,133
1c00d6e0:	00e7a023          	sw	a4,0(a5)
1c00d6e4:	8082                	ret
1c00d6e6:	6785                	lui	a5,0x1
1c00d6e8:	1a10a737          	lui	a4,0x1a10a
1c00d6ec:	80078793          	addi	a5,a5,-2048 # 800 <pos_soc_event_callback+0x3b8>
1c00d6f0:	80f72a23          	sw	a5,-2028(a4) # 1a109814 <__l1_end+0xa1056ec>
1c00d6f4:	8082                	ret
1c00d6f6:	873e                	mv	a4,a5
1c00d6f8:	b7e9                	j	1c00d6c2 <pos_time_timer_handler+0xa0>
1c00d6fa:	03002023          	sw	a6,32(zero) # 20 <pos_sched_first>
1c00d6fe:	b761                	j	1c00d686 <pos_time_timer_handler+0x64>
1c00d700:	03002023          	sw	a6,32(zero) # 20 <pos_sched_first>
1c00d704:	bf6d                	j	1c00d6be <pos_time_timer_handler+0x9c>

1c00d706 <pos_time_init>:
1c00d706:	1141                	addi	sp,sp,-16
1c00d708:	c422                	sw	s0,8(sp)
1c00d70a:	1a10b7b7          	lui	a5,0x1a10b
1c00d70e:	1c001437          	lui	s0,0x1c001
1c00d712:	c606                	sw	ra,12(sp)
1c00d714:	41840413          	addi	s0,s0,1048 # 1c001418 <pos_time_timer_count>
1c00d718:	08300713          	li	a4,131
1c00d71c:	0791                	addi	a5,a5,4
1c00d71e:	00042223          	sw	zero,4(s0)
1c00d722:	00e7a023          	sw	a4,0(a5) # 1a10b000 <__l1_end+0xa106ed8>
1c00d726:	1c00e5b7          	lui	a1,0x1c00e
1c00d72a:	bce58593          	addi	a1,a1,-1074 # 1c00dbce <pos_time_timer_handler_asm>
1c00d72e:	452d                	li	a0,11
1c00d730:	33fd                	jal	1c00d51e <pos_irq_set_handler>
1c00d732:	6785                	lui	a5,0x1
1c00d734:	1a10a737          	lui	a4,0x1a10a
1c00d738:	80078793          	addi	a5,a5,-2048 # 800 <pos_soc_event_callback+0x3b8>
1c00d73c:	1c00d637          	lui	a2,0x1c00d
1c00d740:	00840513          	addi	a0,s0,8
1c00d744:	4681                	li	a3,0
1c00d746:	5f660613          	addi	a2,a2,1526 # 1c00d5f6 <pos_time_poweroff>
1c00d74a:	4589                	li	a1,2
1c00d74c:	80f72223          	sw	a5,-2044(a4) # 1a109804 <__l1_end+0xa1056dc>
1c00d750:	3ec1                	jal	1c00d320 <pos_cbsys_add>
1c00d752:	01840513          	addi	a0,s0,24
1c00d756:	4422                	lw	s0,8(sp)
1c00d758:	40b2                	lw	ra,12(sp)
1c00d75a:	1c00d637          	lui	a2,0x1c00d
1c00d75e:	4681                	li	a3,0
1c00d760:	60c60613          	addi	a2,a2,1548 # 1c00d60c <pos_time_poweron>
1c00d764:	458d                	li	a1,3
1c00d766:	0141                	addi	sp,sp,16
1c00d768:	be65                	j	1c00d320 <pos_cbsys_add>

1c00d76a <pos_uart_init>:
1c00d76a:	1c0107b7          	lui	a5,0x1c010
1c00d76e:	1407a823          	sw	zero,336(a5) # 1c010150 <__cluster_text_end>
1c00d772:	8082                	ret

1c00d774 <pi_cluster_conf_init>:
1c00d774:	00052223          	sw	zero,4(a0)
1c00d778:	00052a23          	sw	zero,20(a0)
1c00d77c:	8082                	ret

1c00d77e <pi_cluster_open>:
1c00d77e:	7179                	addi	sp,sp,-48
1c00d780:	c85a                	sw	s6,16(sp)
1c00d782:	00452b03          	lw	s6,4(a0)
1c00d786:	ca56                	sw	s5,20(sp)
1c00d788:	1c0057b7          	lui	a5,0x1c005
1c00d78c:	004b2a83          	lw	s5,4(s6)
1c00d790:	d422                	sw	s0,40(sp)
1c00d792:	c462                	sw	s8,8(sp)
1c00d794:	4dc78413          	addi	s0,a5,1244 # 1c0054dc <pos_cluster>
1c00d798:	005a9c13          	slli	s8,s5,0x5
1c00d79c:	d606                	sw	ra,44(sp)
1c00d79e:	d226                	sw	s1,36(sp)
1c00d7a0:	d04a                	sw	s2,32(sp)
1c00d7a2:	ce4e                	sw	s3,28(sp)
1c00d7a4:	cc52                	sw	s4,24(sp)
1c00d7a6:	c65e                	sw	s7,12(sp)
1c00d7a8:	018404b3          	add	s1,s0,s8
1c00d7ac:	c504                	sw	s1,8(a0)
1c00d7ae:	1c00e5b7          	lui	a1,0x1c00e
1c00d7b2:	0ffafb93          	andi	s7,s5,255
1c00d7b6:	b4658593          	addi	a1,a1,-1210 # 1c00db46 <pos_task_remote_enqueue>
1c00d7ba:	4505                	li	a0,1
1c00d7bc:	01748e23          	sb	s7,28(s1)
1c00d7c0:	3bb9                	jal	1c00d51e <pos_irq_set_handler>
1c00d7c2:	040a8793          	addi	a5,s5,64
1c00d7c6:	1a10a737          	lui	a4,0x1a10a
1c00d7ca:	01679993          	slli	s3,a5,0x16
1c00d7ce:	00400913          	li	s2,4
1c00d7d2:	4789                	li	a5,2
1c00d7d4:	80f72223          	sw	a5,-2044(a4) # 1a109804 <__l1_end+0xa1056dc>
1c00d7d8:	e6c93933          	p.bclr	s2,s2,19,12
1c00d7dc:	0004a023          	sw	zero,0(s1)
1c00d7e0:	994e                	add	s2,s2,s3
1c00d7e2:	10004a37          	lui	s4,0x10004
1c00d7e6:	00092023          	sw	zero,0(s2)
1c00d7ea:	120a0a13          	addi	s4,s4,288 # 10004120 <pos_cluster_fc_task_lock>
1c00d7ee:	4509                	li	a0,2
1c00d7f0:	00092623          	sw	zero,12(s2)
1c00d7f4:	00092223          	sw	zero,4(s2)
1c00d7f8:	000a2023          	sw	zero,0(s4)
1c00d7fc:	ccbfd0ef          	jal	ra,1c00b4c6 <pos_fll_init>
1c00d800:	01400793          	li	a5,20
1c00d804:	478c                	lw	a1,8(a5)
1c00d806:	ede1                	bnez	a1,1c00d8de <pi_cluster_open+0x160>
1c00d808:	c788                	sw	a0,8(a5)
1c00d80a:	002004b7          	lui	s1,0x200
1c00d80e:	94ce                	add	s1,s1,s3
1c00d810:	4785                	li	a5,1
1c00d812:	02f4a023          	sw	a5,32(s1) # 200020 <__l1_heap_size+0x1f4148>
1c00d816:	00400693          	li	a3,4
1c00d81a:	6791                	lui	a5,0x4
1c00d81c:	e6c6b6b3          	p.bclr	a3,a3,19,12
1c00d820:	12478793          	addi	a5,a5,292 # 4124 <_l1_preload_size>
1c00d824:	96ce                	add	a3,a3,s3
1c00d826:	02f05663          	blez	a5,1c00d852 <pi_cluster_open+0xd4>
1c00d82a:	17fd                	addi	a5,a5,-1
1c00d82c:	1c010737          	lui	a4,0x1c010
1c00d830:	6611                	lui	a2,0x4
1c00d832:	18870713          	addi	a4,a4,392 # 1c010188 <_l1_preload_start_inL2>
1c00d836:	8389                	srli	a5,a5,0x2
1c00d838:	12060613          	addi	a2,a2,288 # 4120 <pos_soc_event_callback+0x3cd8>
1c00d83c:	55f5                	li	a1,-3
1c00d83e:	8e99                	sub	a3,a3,a4
1c00d840:	0785                	addi	a5,a5,1
1c00d842:	0ab64263          	blt	a2,a1,1c00d8e6 <pi_cluster_open+0x168>
1c00d846:	0057c0fb          	lp.setup	x1,a5,1c00d850 <pi_cluster_open+0xd2>
1c00d84a:	4310                	lw	a2,0(a4)
1c00d84c:	00c766a3          	p.sw	a2,a3(a4)
1c00d850:	0711                	addi	a4,a4,4
1c00d852:	018407b3          	add	a5,s0,s8
1c00d856:	01778e23          	sb	s7,28(a5)
1c00d85a:	014b4683          	lbu	a3,20(s6)
1c00d85e:	00201437          	lui	s0,0x201
1c00d862:	e0440713          	addi	a4,s0,-508 # 200e04 <__l1_heap_size+0x1f4f2c>
1c00d866:	974e                	add	a4,a4,s3
1c00d868:	cf98                	sw	a4,24(a5)
1c00d86a:	cb98                	sw	a4,16(a5)
1c00d86c:	0127a223          	sw	s2,4(a5)
1c00d870:	00d78ea3          	sb	a3,29(a5)
1c00d874:	8556                	mv	a0,s5
1c00d876:	0007a423          	sw	zero,8(a5)
1c00d87a:	0007aa23          	sw	zero,20(a5)
1c00d87e:	00078f23          	sb	zero,30(a5)
1c00d882:	00da0223          	sb	a3,4(s4)
1c00d886:	36dd                	jal	1c00d46c <pos_alloc_init_l1>
1c00d888:	40040793          	addi	a5,s0,1024
1c00d88c:	97ce                	add	a5,a5,s3
1c00d88e:	577d                	li	a4,-1
1c00d890:	00e7a023          	sw	a4,0(a5)
1c00d894:	1c0087b7          	lui	a5,0x1c008
1c00d898:	08078793          	addi	a5,a5,128 # 1c008080 <_start>
1c00d89c:	04f4a023          	sw	a5,64(s1)
1c00d8a0:	04f4a223          	sw	a5,68(s1)
1c00d8a4:	04f4a423          	sw	a5,72(s1)
1c00d8a8:	04f4a623          	sw	a5,76(s1)
1c00d8ac:	04f4a823          	sw	a5,80(s1)
1c00d8b0:	04f4aa23          	sw	a5,84(s1)
1c00d8b4:	04f4ac23          	sw	a5,88(s1)
1c00d8b8:	04f4ae23          	sw	a5,92(s1)
1c00d8bc:	0ff00793          	li	a5,255
1c00d8c0:	00f4a423          	sw	a5,8(s1)
1c00d8c4:	50b2                	lw	ra,44(sp)
1c00d8c6:	5422                	lw	s0,40(sp)
1c00d8c8:	5492                	lw	s1,36(sp)
1c00d8ca:	5902                	lw	s2,32(sp)
1c00d8cc:	49f2                	lw	s3,28(sp)
1c00d8ce:	4a62                	lw	s4,24(sp)
1c00d8d0:	4ad2                	lw	s5,20(sp)
1c00d8d2:	4b42                	lw	s6,16(sp)
1c00d8d4:	4bb2                	lw	s7,12(sp)
1c00d8d6:	4c22                	lw	s8,8(sp)
1c00d8d8:	4501                	li	a0,0
1c00d8da:	6145                	addi	sp,sp,48
1c00d8dc:	8082                	ret
1c00d8de:	4509                	li	a0,2
1c00d8e0:	b8dfd0ef          	jal	ra,1c00b46c <pos_fll_set_freq>
1c00d8e4:	b71d                	j	1c00d80a <pi_cluster_open+0x8c>
1c00d8e6:	4785                	li	a5,1
1c00d8e8:	bfb9                	j	1c00d846 <pi_cluster_open+0xc8>

1c00d8ea <pi_cluster_close>:
1c00d8ea:	4501                	li	a0,0
1c00d8ec:	8082                	ret

1c00d8ee <pos_cluster_task_set_stack>:
1c00d8ee:	1101                	addi	sp,sp,-32
1c00d8f0:	c84a                	sw	s2,16(sp)
1c00d8f2:	00852903          	lw	s2,8(a0)
1c00d8f6:	ca26                	sw	s1,20(sp)
1c00d8f8:	c64e                	sw	s3,12(sp)
1c00d8fa:	4785                	li	a5,1
1c00d8fc:	ce06                	sw	ra,28(sp)
1c00d8fe:	cc22                	sw	s0,24(sp)
1c00d900:	00f90f23          	sb	a5,30(s2)
1c00d904:	45dc                	lw	a5,12(a1)
1c00d906:	89aa                	mv	s3,a0
1c00d908:	84ae                	mv	s1,a1
1c00d90a:	ebb1                	bnez	a5,1c00d95e <pos_cluster_task_set_stack+0x70>
1c00d90c:	6785                	lui	a5,0x1
1c00d90e:	80078793          	addi	a5,a5,-2048 # 800 <pos_soc_event_callback+0x3b8>
1c00d912:	40000713          	li	a4,1024
1c00d916:	c5dc                	sw	a5,12(a1)
1c00d918:	c998                	sw	a4,16(a1)
1c00d91a:	40000693          	li	a3,1024
1c00d91e:	48d8                	lw	a4,20(s1)
1c00d920:	00892503          	lw	a0,8(s2)
1c00d924:	843e                	mv	s0,a5
1c00d926:	177d                	addi	a4,a4,-1
1c00d928:	42d70433          	p.mac	s0,a4,a3
1c00d92c:	c901                	beqz	a0,1c00d93c <pos_cluster_task_set_stack+0x4e>
1c00d92e:	00c92603          	lw	a2,12(s2)
1c00d932:	00860d63          	beq	a2,s0,1c00d94c <pos_cluster_task_set_stack+0x5e>
1c00d936:	85aa                	mv	a1,a0
1c00d938:	854e                	mv	a0,s3
1c00d93a:	36f1                	jal	1c00d506 <pi_cl_l1_free>
1c00d93c:	00892623          	sw	s0,12(s2)
1c00d940:	85a2                	mv	a1,s0
1c00d942:	854e                	mv	a0,s3
1c00d944:	366d                	jal	1c00d4ee <pi_cl_l1_malloc>
1c00d946:	00a92423          	sw	a0,8(s2)
1c00d94a:	cd19                	beqz	a0,1c00d968 <pos_cluster_task_set_stack+0x7a>
1c00d94c:	c488                	sw	a0,8(s1)
1c00d94e:	4501                	li	a0,0
1c00d950:	40f2                	lw	ra,28(sp)
1c00d952:	4462                	lw	s0,24(sp)
1c00d954:	44d2                	lw	s1,20(sp)
1c00d956:	4942                	lw	s2,16(sp)
1c00d958:	49b2                	lw	s3,12(sp)
1c00d95a:	6105                	addi	sp,sp,32
1c00d95c:	8082                	ret
1c00d95e:	4994                	lw	a3,16(a1)
1c00d960:	fedd                	bnez	a3,1c00d91e <pos_cluster_task_set_stack+0x30>
1c00d962:	c99c                	sw	a5,16(a1)
1c00d964:	86be                	mv	a3,a5
1c00d966:	bf65                	j	1c00d91e <pos_cluster_task_set_stack+0x30>
1c00d968:	557d                	li	a0,-1
1c00d96a:	b7dd                	j	1c00d950 <pos_cluster_task_set_stack+0x62>

1c00d96c <pi_cluster_send_task_to_cl>:
1c00d96c:	715d                	addi	sp,sp,-80
1c00d96e:	c2a6                	sw	s1,68(sp)
1c00d970:	4504                	lw	s1,8(a0)
1c00d972:	c4a2                	sw	s0,72(sp)
1c00d974:	c0ca                	sw	s2,64(sp)
1c00d976:	c686                	sw	ra,76(sp)
1c00d978:	1c00d7b7          	lui	a5,0x1c00d
1c00d97c:	33e78793          	addi	a5,a5,830 # 1c00d33e <pos_task_handle_blocking>
1c00d980:	01d4c703          	lbu	a4,29(s1)
1c00d984:	c23e                	sw	a5,4(sp)
1c00d986:	00010793          	mv	a5,sp
1c00d98a:	00010a23          	sb	zero,20(sp)
1c00d98e:	c43e                	sw	a5,8(sp)
1c00d990:	842e                	mv	s0,a1
1c00d992:	0044a903          	lw	s2,4(s1)
1c00d996:	459c                	lw	a5,8(a1)
1c00d998:	04173c63          	p.bneimm	a4,1,1c00d9f0 <pi_cluster_send_task_to_cl+0x84>
1c00d99c:	c3b5                	beqz	a5,1c00da00 <pi_cluster_send_task_to_cl+0x94>
1c00d99e:	00010793          	mv	a5,sp
1c00d9a2:	02042023          	sw	zero,32(s0)
1c00d9a6:	cc1c                	sw	a5,24(s0)
1c00d9a8:	30047773          	csrrci	a4,mstatus,8
1c00d9ac:	409c                	lw	a5,0(s1)
1c00d9ae:	c391                	beqz	a5,1c00d9b2 <pi_cluster_send_task_to_cl+0x46>
1c00d9b0:	d380                	sw	s0,32(a5)
1c00d9b2:	c080                	sw	s0,0(s1)
1c00d9b4:	00092783          	lw	a5,0(s2)
1c00d9b8:	cb8d                	beqz	a5,1c00d9ea <pi_cluster_send_task_to_cl+0x7e>
1c00d9ba:	4c9c                	lw	a5,24(s1)
1c00d9bc:	0007a023          	sw	zero,0(a5)
1c00d9c0:	30071073          	csrw	mstatus,a4
1c00d9c4:	30047473          	csrrci	s0,mstatus,8
1c00d9c8:	01410783          	lb	a5,20(sp)
1c00d9cc:	e791                	bnez	a5,1c00d9d8 <pi_cluster_send_task_to_cl+0x6c>
1c00d9ce:	979ff0ef          	jal	ra,1c00d346 <pos_task_handle>
1c00d9d2:	01410783          	lb	a5,20(sp)
1c00d9d6:	dfe5                	beqz	a5,1c00d9ce <pi_cluster_send_task_to_cl+0x62>
1c00d9d8:	30041073          	csrw	mstatus,s0
1c00d9dc:	4501                	li	a0,0
1c00d9de:	40b6                	lw	ra,76(sp)
1c00d9e0:	4426                	lw	s0,72(sp)
1c00d9e2:	4496                	lw	s1,68(sp)
1c00d9e4:	4906                	lw	s2,64(sp)
1c00d9e6:	6161                	addi	sp,sp,80
1c00d9e8:	8082                	ret
1c00d9ea:	00892023          	sw	s0,0(s2)
1c00d9ee:	b7f1                	j	1c00d9ba <pi_cluster_send_task_to_cl+0x4e>
1c00d9f0:	cf99                	beqz	a5,1c00da0e <pi_cluster_send_task_to_cl+0xa2>
1c00d9f2:	4858                	lw	a4,20(s0)
1c00d9f4:	4785                	li	a5,1
1c00d9f6:	00e797b3          	sll	a5,a5,a4
1c00d9fa:	17fd                	addi	a5,a5,-1
1c00d9fc:	d05c                	sw	a5,36(s0)
1c00d9fe:	b745                	j	1c00d99e <pi_cluster_send_task_to_cl+0x32>
1c00da00:	01e4c783          	lbu	a5,30(s1)
1c00da04:	ffc9                	bnez	a5,1c00d99e <pi_cluster_send_task_to_cl+0x32>
1c00da06:	35e5                	jal	1c00d8ee <pos_cluster_task_set_stack>
1c00da08:	d959                	beqz	a0,1c00d99e <pi_cluster_send_task_to_cl+0x32>
1c00da0a:	557d                	li	a0,-1
1c00da0c:	bfc9                	j	1c00d9de <pi_cluster_send_task_to_cl+0x72>
1c00da0e:	35c5                	jal	1c00d8ee <pos_cluster_task_set_stack>
1c00da10:	d16d                	beqz	a0,1c00d9f2 <pi_cluster_send_task_to_cl+0x86>
1c00da12:	bfe5                	j	1c00da0a <pi_cluster_send_task_to_cl+0x9e>

1c00da14 <pos_init_entry>:
1c00da14:	7a101073          	csrw	pcmr,zero
1c00da18:	f1402573          	csrr	a0,mhartid
1c00da1c:	01f57593          	andi	a1,a0,31
1c00da20:	8115                	srli	a0,a0,0x5
1c00da22:	467d                	li	a2,31
1c00da24:	00c50463          	beq	a0,a2,1c00da2c <pos_init_entry+0x18>
1c00da28:	5d80206f          	j	1c010000 <__cluster_text_start>
1c00da2c:	ffff8297          	auipc	t0,0xffff8
1c00da30:	a9c28293          	addi	t0,t0,-1380 # 1c0054c8 <_bss_start>
1c00da34:	ffff8317          	auipc	t1,0xffff8
1c00da38:	ac830313          	addi	t1,t1,-1336 # 1c0054fc <__l2_priv0_end>
1c00da3c:	0002a023          	sw	zero,0(t0)
1c00da40:	0291                	addi	t0,t0,4
1c00da42:	fe62ede3          	bltu	t0,t1,1c00da3c <pos_init_entry+0x28>
1c00da46:	ffff4117          	auipc	sp,0xffff4
1c00da4a:	9ba10113          	addi	sp,sp,-1606 # 1c001400 <stack>
1c00da4e:	00000297          	auipc	t0,0x0
1c00da52:	87228293          	addi	t0,t0,-1934 # 1c00d2c0 <pos_init_start>
1c00da56:	000280e7          	jalr	t0
1c00da5a:	00000513          	li	a0,0
1c00da5e:	00000593          	li	a1,0
1c00da62:	ffffd397          	auipc	t2,0xffffd
1c00da66:	01a38393          	addi	t2,t2,26 # 1c00aa7c <main>
1c00da6a:	000380e7          	jalr	t2
1c00da6e:	842a                	mv	s0,a0
1c00da70:	8522                	mv	a0,s0
1c00da72:	ffffe297          	auipc	t0,0xffffe
1c00da76:	c3c28293          	addi	t0,t0,-964 # 1c00b6ae <exit>
1c00da7a:	000280e7          	jalr	t0

1c00da7e <pos_irq_call_external_c_function>:
1c00da7e:	7119                	addi	sp,sp,-128
1c00da80:	c006                	sw	ra,0(sp)
1c00da82:	c20e                	sw	gp,4(sp)
1c00da84:	c412                	sw	tp,8(sp)
1c00da86:	c616                	sw	t0,12(sp)
1c00da88:	c81a                	sw	t1,16(sp)
1c00da8a:	ca1e                	sw	t2,20(sp)
1c00da8c:	d236                	sw	a3,36(sp)
1c00da8e:	d43a                	sw	a4,40(sp)
1c00da90:	d63e                	sw	a5,44(sp)
1c00da92:	d842                	sw	a6,48(sp)
1c00da94:	da46                	sw	a7,52(sp)
1c00da96:	dc72                	sw	t3,56(sp)
1c00da98:	de76                	sw	t4,60(sp)
1c00da9a:	c0fa                	sw	t5,64(sp)
1c00da9c:	c6fe                	sw	t6,76(sp)
1c00da9e:	000600e7          	jalr	a2
1c00daa2:	4082                	lw	ra,0(sp)
1c00daa4:	4192                	lw	gp,4(sp)
1c00daa6:	4222                	lw	tp,8(sp)
1c00daa8:	42b2                	lw	t0,12(sp)
1c00daaa:	4342                	lw	t1,16(sp)
1c00daac:	43d2                	lw	t2,20(sp)
1c00daae:	5692                	lw	a3,36(sp)
1c00dab0:	5722                	lw	a4,40(sp)
1c00dab2:	57b2                	lw	a5,44(sp)
1c00dab4:	5842                	lw	a6,48(sp)
1c00dab6:	58d2                	lw	a7,52(sp)
1c00dab8:	5e62                	lw	t3,56(sp)
1c00daba:	5ef2                	lw	t4,60(sp)
1c00dabc:	4f06                	lw	t5,64(sp)
1c00dabe:	4fb6                	lw	t6,76(sp)
1c00dac0:	6109                	addi	sp,sp,128
1c00dac2:	8482                	jr	s1

1c00dac4 <pos_irq_call_external_c_function_full>:
1c00dac4:	7119                	addi	sp,sp,-128
1c00dac6:	c006                	sw	ra,0(sp)
1c00dac8:	c20e                	sw	gp,4(sp)
1c00daca:	c412                	sw	tp,8(sp)
1c00dacc:	c616                	sw	t0,12(sp)
1c00dace:	c81a                	sw	t1,16(sp)
1c00dad0:	ca1e                	sw	t2,20(sp)
1c00dad2:	cc2a                	sw	a0,24(sp)
1c00dad4:	ce2e                	sw	a1,28(sp)
1c00dad6:	d236                	sw	a3,36(sp)
1c00dad8:	d43a                	sw	a4,40(sp)
1c00dada:	d63e                	sw	a5,44(sp)
1c00dadc:	d842                	sw	a6,48(sp)
1c00dade:	da46                	sw	a7,52(sp)
1c00dae0:	dc72                	sw	t3,56(sp)
1c00dae2:	de76                	sw	t4,60(sp)
1c00dae4:	c0fa                	sw	t5,64(sp)
1c00dae6:	c6fe                	sw	t6,76(sp)
1c00dae8:	000600e7          	jalr	a2
1c00daec:	4082                	lw	ra,0(sp)
1c00daee:	4192                	lw	gp,4(sp)
1c00daf0:	4222                	lw	tp,8(sp)
1c00daf2:	42b2                	lw	t0,12(sp)
1c00daf4:	4342                	lw	t1,16(sp)
1c00daf6:	43d2                	lw	t2,20(sp)
1c00daf8:	4562                	lw	a0,24(sp)
1c00dafa:	45f2                	lw	a1,28(sp)
1c00dafc:	5692                	lw	a3,36(sp)
1c00dafe:	5722                	lw	a4,40(sp)
1c00db00:	57b2                	lw	a5,44(sp)
1c00db02:	5842                	lw	a6,48(sp)
1c00db04:	58d2                	lw	a7,52(sp)
1c00db06:	5e62                	lw	t3,56(sp)
1c00db08:	5ef2                	lw	t4,60(sp)
1c00db0a:	4f06                	lw	t5,64(sp)
1c00db0c:	4fb6                	lw	t6,76(sp)
1c00db0e:	6109                	addi	sp,sp,128
1c00db10:	8482                	jr	s1

1c00db12 <pos_task_push_asm>:
1c00db12:	e3ff2297          	auipc	t0,0xe3ff2
1c00db16:	50e28293          	addi	t0,t0,1294 # 20 <pos_sched_first>
1c00db1a:	0002a603          	lw	a2,0(t0)
1c00db1e:	0005a023          	sw	zero,0(a1)
1c00db22:	ca09                	beqz	a2,1c00db34 <__rt_no_first>
1c00db24:	e3ff2297          	auipc	t0,0xe3ff2
1c00db28:	50028293          	addi	t0,t0,1280 # 24 <pos_sched_last>
1c00db2c:	0002a603          	lw	a2,0(t0)
1c00db30:	c20c                	sw	a1,0(a2)
1c00db32:	a029                	j	1c00db3c <__rt_common>

1c00db34 <__rt_no_first>:
1c00db34:	e3ff2297          	auipc	t0,0xe3ff2
1c00db38:	4eb2a623          	sw	a1,1260(t0) # 20 <pos_sched_first>

1c00db3c <__rt_common>:
1c00db3c:	e3ff2297          	auipc	t0,0xe3ff2
1c00db40:	4eb2a423          	sw	a1,1256(t0) # 24 <pos_sched_last>

1c00db44 <enqueue_end>:
1c00db44:	8482                	jr	s1

1c00db46 <pos_task_remote_enqueue>:
1c00db46:	fe812e23          	sw	s0,-4(sp)
1c00db4a:	fe912c23          	sw	s1,-8(sp)
1c00db4e:	fea12a23          	sw	a0,-12(sp)
1c00db52:	feb12823          	sw	a1,-16(sp)
1c00db56:	fec12623          	sw	a2,-20(sp)
1c00db5a:	4405                	li	s0,1
1c00db5c:	ffff8497          	auipc	s1,0xffff8
1c00db60:	98048493          	addi	s1,s1,-1664 # 1c0054dc <pos_cluster>

1c00db64 <pos_task_remote_enqueue_event_loop_cluster>:
1c00db64:	48cc                	lw	a1,20(s1)
1c00db66:	40d0                	lw	a2,4(s1)
1c00db68:	02058a63          	beqz	a1,1c00db9c <pos_task_remote_enqueue_event_loop_cluster_continue>
1c00db6c:	4208                	lw	a0,0(a2)
1c00db6e:	e119                	bnez	a0,1c00db74 <pos_task_remote_enqueue_no_queue_update>
1c00db70:	0004a023          	sw	zero,0(s1)

1c00db74 <pos_task_remote_enqueue_no_queue_update>:
1c00db74:	4890                	lw	a2,16(s1)
1c00db76:	0004aa23          	sw	zero,20(s1)
1c00db7a:	00062023          	sw	zero,0(a2)
1c00db7e:	00000497          	auipc	s1,0x0
1c00db82:	01e48493          	addi	s1,s1,30 # 1c00db9c <pos_task_remote_enqueue_event_loop_cluster_continue>
1c00db86:	0035f513          	andi	a0,a1,3
1c00db8a:	00051363          	bnez	a0,1c00db90 <pos_task_callback>
1c00db8e:	b751                	j	1c00db12 <pos_task_push_asm>

1c00db90 <pos_task_callback>:
1c00db90:	5571                	li	a0,-4
1c00db92:	8de9                	and	a1,a1,a0
1c00db94:	41d0                	lw	a2,4(a1)
1c00db96:	4588                	lw	a0,8(a1)
1c00db98:	ee7ff06f          	j	1c00da7e <pos_irq_call_external_c_function>

1c00db9c <pos_task_remote_enqueue_event_loop_cluster_continue>:
1c00db9c:	147d                	addi	s0,s0,-1
1c00db9e:	00804e63          	bgtz	s0,1c00dbba <pos_task_remote_enqueue_event_loop_next_cluster>
1c00dba2:	ffc12403          	lw	s0,-4(sp)
1c00dba6:	ff812483          	lw	s1,-8(sp)
1c00dbaa:	ff412503          	lw	a0,-12(sp)
1c00dbae:	ff012583          	lw	a1,-16(sp)
1c00dbb2:	fec12603          	lw	a2,-20(sp)
1c00dbb6:	30200073          	mret

1c00dbba <pos_task_remote_enqueue_event_loop_next_cluster>:
1c00dbba:	ffff8497          	auipc	s1,0xffff8
1c00dbbe:	92248493          	addi	s1,s1,-1758 # 1c0054dc <pos_cluster>
1c00dbc2:	02c00593          	li	a1,44
1c00dbc6:	02b405b3          	mul	a1,s0,a1
1c00dbca:	94ae                	add	s1,s1,a1
1c00dbcc:	bf61                	j	1c00db64 <pos_task_remote_enqueue_event_loop_cluster>

1c00dbce <pos_time_timer_handler_asm>:
1c00dbce:	1161                	addi	sp,sp,-8
1c00dbd0:	c032                	sw	a2,0(sp)
1c00dbd2:	c226                	sw	s1,4(sp)
1c00dbd4:	00000617          	auipc	a2,0x0
1c00dbd8:	a4e60613          	addi	a2,a2,-1458 # 1c00d622 <pos_time_timer_handler>
1c00dbdc:	00000497          	auipc	s1,0x0
1c00dbe0:	00c48493          	addi	s1,s1,12 # 1c00dbe8 <pos_time_timer_handler_asm_ret>
1c00dbe4:	ee1ff06f          	j	1c00dac4 <pos_irq_call_external_c_function_full>

1c00dbe8 <pos_time_timer_handler_asm_ret>:
1c00dbe8:	4492                	lw	s1,4(sp)
1c00dbea:	4602                	lw	a2,0(sp)
1c00dbec:	0121                	addi	sp,sp,8
1c00dbee:	30200073          	mret

1c00dbf2 <pos_soc_event_handler_asm>:
1c00dbf2:	7119                	addi	sp,sp,-128
1c00dbf4:	c022                	sw	s0,0(sp)
1c00dbf6:	c226                	sw	s1,4(sp)
1c00dbf8:	c42a                	sw	a0,8(sp)
1c00dbfa:	c62e                	sw	a1,12(sp)
1c00dbfc:	c832                	sw	a2,16(sp)
1c00dbfe:	1a10a437          	lui	s0,0x1a10a
1c00dc02:	80040413          	addi	s0,s0,-2048 # 1a109800 <__l1_end+0xa1056d8>
1c00dc06:	5048                	lw	a0,36(s0)
1c00dc08:	00251593          	slli	a1,a0,0x2
1c00dc0c:	e3ff3297          	auipc	t0,0xe3ff3
1c00dc10:	83c28293          	addi	t0,t0,-1988 # 448 <pos_soc_event_callback>
1c00dc14:	2055f603          	p.lw	a2,t0(a1)
1c00dc18:	e3ff2297          	auipc	t0,0xe3ff2
1c00dc1c:	43028293          	addi	t0,t0,1072 # 48 <pos_soc_event_callback_arg>
1c00dc20:	2055f583          	p.lw	a1,t0(a1)
1c00dc24:	00000497          	auipc	s1,0x0
1c00dc28:	03048493          	addi	s1,s1,48 # 1c00dc54 <pos_soc_event_handler_end_asm>
1c00dc2c:	e53ff06f          	j	1c00da7e <pos_irq_call_external_c_function>

1c00dc30 <pos_soc_event_no_udma_asm>:
1c00dc30:	00555593          	srli	a1,a0,0x5
1c00dc34:	058a                	slli	a1,a1,0x2
1c00dc36:	e3ff2297          	auipc	t0,0xe3ff2
1c00dc3a:	3f228293          	addi	t0,t0,1010 # 28 <pos_soc_event_status>
1c00dc3e:	2055f603          	p.lw	a2,t0(a1)
1c00dc42:	897d                	andi	a0,a0,31
1c00dc44:	80a64633          	p.bsetr	a2,a2,a0
1c00dc48:	e3ff2297          	auipc	t0,0xe3ff2
1c00dc4c:	3e028293          	addi	t0,t0,992 # 28 <pos_soc_event_status>
1c00dc50:	00c5e2a3          	p.sw	a2,t0(a1)

1c00dc54 <pos_soc_event_handler_end_asm>:
1c00dc54:	4402                	lw	s0,0(sp)
1c00dc56:	4492                	lw	s1,4(sp)
1c00dc58:	4522                	lw	a0,8(sp)
1c00dc5a:	45b2                	lw	a1,12(sp)
1c00dc5c:	4642                	lw	a2,16(sp)
1c00dc5e:	6109                	addi	sp,sp,128
1c00dc60:	30200073          	mret

Disassembly of section .l2_data:

1c010000 <__cluster_text_start>:
1c010000:	f1402573          	csrr	a0,mhartid
1c010004:	01f57593          	andi	a1,a0,31
1c010008:	8115                	srli	a0,a0,0x5
1c01000a:	000702b7          	lui	t0,0x70
1c01000e:	00204337          	lui	t1,0x204
1c010012:	00532023          	sw	t0,0(t1) # 204000 <__l1_heap_size+0x1f8128>
1c010016:	4381                	li	t2,0
1c010018:	0e759463          	bne	a1,t2,1c010100 <pos_slave_start>
1c01001c:	20000293          	li	t0,512
1c010020:	00204337          	lui	t1,0x204
1c010024:	00532a23          	sw	t0,20(t1) # 204014 <__l1_heap_size+0x1f813c>
1c010028:	e3ff0417          	auipc	s0,0xe3ff0
1c01002c:	fdc40413          	addi	s0,s0,-36 # 4 <pos_fll_freq>
1c010030:	002049b7          	lui	s3,0x204
1c010034:	4a09                	li	s4,2
1c010036:	00000a97          	auipc	s5,0x0
1c01003a:	038a8a93          	addi	s5,s5,56 # 1c01006e <pos_master_event>
1c01003e:	ffff5b97          	auipc	s7,0xffff5
1c010042:	49eb8b93          	addi	s7,s7,1182 # 1c0054dc <pos_cluster>
1c010046:	02c00393          	li	t2,44
1c01004a:	02a383b3          	mul	t2,t2,a0
1c01004e:	9b9e                	add	s7,s7,t2
1c010050:	0bd1                	addi	s7,s7,20
1c010052:	1a10acb7          	lui	s9,0x1a10a
1c010056:	810c8c93          	addi	s9,s9,-2032 # 1a109810 <__l1_end+0xa1056e8>
1c01005a:	4c09                	li	s8,2
1c01005c:	00000d17          	auipc	s10,0x0
1c010060:	0e2d0d13          	addi	s10,s10,226 # 1c01013e <pos_set_slave_stack>
1c010064:	001d6d13          	ori	s10,s10,1
1c010068:	30045073          	csrwi	mstatus,8
1c01006c:	a829                	j	1c010086 <pos_master_loop>

1c01006e <pos_master_event>:
1c01006e:	018b2b03          	lw	s6,24(s6)
1c010072:	000b0a63          	beqz	s6,1c010086 <pos_master_loop>

1c010076 <pos_push_event_to_fc_retry>:
1c010076:	000ba283          	lw	t0,0(s7)
1c01007a:	06029c63          	bnez	t0,1c0100f2 <pos_push_event_to_fc_wait>
1c01007e:	016ba023          	sw	s6,0(s7)
1c010082:	018ca023          	sw	s8,0(s9)

1c010086 <pos_master_loop>:
1c010086:	00042b03          	lw	s6,0(s0)
1c01008a:	040b0d63          	beqz	s6,1c0100e4 <pos_master_sleep>

1c01008e <pos_master_loop_update_next>:
1c01008e:	020b2e83          	lw	t4,32(s6)
1c010092:	01d42023          	sw	t4,0(s0)
1c010096:	020b2f03          	lw	t5,32(s6)
1c01009a:	ffee9ae3          	bne	t4,t5,1c01008e <pos_master_loop_update_next>

1c01009e <pos_master_loop_exec_task>:
1c01009e:	004b2503          	lw	a0,4(s6)
1c0100a2:	000b2283          	lw	t0,0(s6)
1c0100a6:	008b2103          	lw	sp,8(s6)
1c0100aa:	00cb2303          	lw	t1,12(s6)
1c0100ae:	010b2383          	lw	t2,16(s6)
1c0100b2:	024b2f03          	lw	t5,36(s6)
1c0100b6:	014b2f83          	lw	t6,20(s6)
1c0100ba:	80d6                	mv	ra,s5
1c0100bc:	911a                	add	sp,sp,t1
1c0100be:	e3ff0e17          	auipc	t3,0xe3ff0
1c0100c2:	f5fe2d23          	sw	t6,-166(t3) # 18 <pos_cluster_nb_active_pe>

1c0100c6 <pos_no_stack_check>:
1c0100c6:	09e9a223          	sw	t5,132(s3) # 204084 <__l1_heap_size+0x1f81ac>
1c0100ca:	21e9a023          	sw	t5,512(s3)
1c0100ce:	21e9a623          	sw	t5,524(s3)

1c0100d2 <pos_master_no_slave_barrier>:
1c0100d2:	000f2863          	p.beqimm	t5,0,1c0100e2 <pos_master_loop_no_slave>
1c0100d6:	09a9a023          	sw	s10,128(s3)
1c0100da:	0879a023          	sw	t2,128(s3)
1c0100de:	0829a023          	sw	sp,128(s3)

1c0100e2 <pos_master_loop_no_slave>:
1c0100e2:	8282                	jr	t0

1c0100e4 <pos_master_sleep>:
1c0100e4:	0149a423          	sw	s4,8(s3)
1c0100e8:	03c9e003          	p.elw	zero,60(s3)
1c0100ec:	0149a223          	sw	s4,4(s3)
1c0100f0:	bf59                	j	1c010086 <pos_master_loop>

1c0100f2 <pos_push_event_to_fc_wait>:
1c0100f2:	0149a423          	sw	s4,8(s3)
1c0100f6:	03c9e003          	p.elw	zero,60(s3)
1c0100fa:	0149a223          	sw	s4,4(s3)
1c0100fe:	bfa5                	j	1c010076 <pos_push_event_to_fc_retry>

1c010100 <pos_slave_start>:
1c010100:	00204937          	lui	s2,0x204
1c010104:	f14029f3          	csrr	s3,mhartid
1c010108:	01f9f993          	andi	s3,s3,31
1c01010c:	00000a17          	auipc	s4,0x0
1c010110:	012a0a13          	addi	s4,s4,18 # 1c01011e <pos_fork_return>
1c010114:	00000a97          	auipc	s5,0x0
1c010118:	00ea8a93          	addi	s5,s5,14 # 1c010122 <pos_wait_for_dispatch>
1c01011c:	a019                	j	1c010122 <pos_wait_for_dispatch>

1c01011e <pos_fork_return>:
1c01011e:	21c96283          	p.elw	t0,540(s2) # 20421c <__l1_heap_size+0x1f8344>

1c010122 <pos_wait_for_dispatch>:
1c010122:	08096283          	p.elw	t0,128(s2)
1c010126:	08096503          	p.elw	a0,128(s2)
1c01012a:	0012f313          	andi	t1,t0,1
1c01012e:	00031563          	bnez	t1,1c010138 <pos_other_entry>

1c010132 <pos_fork_entry>:
1c010132:	000a00b3          	add	ra,s4,zero
1c010136:	8282                	jr	t0

1c010138 <pos_other_entry>:
1c010138:	000a80b3          	add	ra,s5,zero
1c01013c:	8282                	jr	t0

1c01013e <pos_set_slave_stack>:
1c01013e:	08096283          	p.elw	t0,128(s2)
1c010142:	00098f13          	mv	t5,s3
1c010146:	02af0eb3          	mul	t4,t5,a0
1c01014a:	005e8133          	add	sp,t4,t0
1c01014e:	8082                	ret

1c010150 <__cluster_text_end>:
	...
